

Microchip MPLAB XC8 Assembler V2.10 build 88905656 
                                                                                               Fri Apr 10 14:08:34 2020

Microchip MPLAB XC8 C Compiler v2.10 (Free license) build 20190730164152 Og1 
     1                           	processor	16F1519
     2                           	opt	pw 120
     3                           	opt	flic
     4                           	psect	stringtext1,global,class=STRCODE,delta=2
     5                           	psect	stringtext2,global,class=STRCODE,delta=2
     6                           	psect	stringtext3,global,class=STRCODE,delta=2
     7                           	psect	stringtext4,global,class=STRCODE,delta=2
     8                           	psect	cinit,global,class=CODE,merge=1,delta=2
     9                           	psect	bssCOMMON,global,class=COMMON,space=1,delta=1
    10                           	psect	bssBANK0,global,class=BANK0,space=1,delta=1
    11                           	psect	bssBANK1,global,class=BANK1,space=1,delta=1
    12                           	psect	bssBANK2,global,class=BANK2,space=1,delta=1
    13                           	psect	clrtext,global,class=CODE,delta=2
    14                           	psect	cstackBANK2,global,class=BANK2,space=1,delta=1
    15                           	psect	cstackBANK1,global,class=BANK1,space=1,delta=1
    16                           	psect	cstackCOMMON,global,class=COMMON,space=1,delta=1
    17                           	psect	cstackBANK0,global,class=BANK0,space=1,delta=1
    18                           	psect	maintext,global,class=CODE,merge=1,split=1,delta=2
    19                           	psect	text1,local,class=CODE,merge=1,delta=2
    20                           	psect	text2,local,class=CODE,merge=1,delta=2
    21                           	psect	text3,local,class=CODE,merge=1,delta=2
    22                           	psect	text4,local,class=CODE,merge=1,delta=2
    23                           	psect	text5,local,class=CODE,merge=1,delta=2
    24                           	psect	text6,local,class=CODE,merge=1,delta=2
    25                           	psect	text7,local,class=CODE,merge=1,delta=2,group=1
    26                           	psect	text8,local,class=CODE,merge=1,delta=2
    27                           	psect	text9,local,class=CODE,merge=1,delta=2
    28                           	psect	text10,local,class=CODE,merge=1,delta=2
    29                           	psect	text11,local,class=CODE,merge=1,delta=2
    30                           	psect	text12,local,class=CODE,merge=1,delta=2
    31                           	psect	text13,local,class=CODE,merge=1,delta=2
    32                           	psect	text14,local,class=CODE,merge=1,delta=2
    33                           	psect	text15,local,class=CODE,merge=1,delta=2
    34                           	psect	text16,local,class=CODE,merge=1,delta=2
    35                           	psect	text17,local,class=CODE,merge=1,delta=2
    36                           	psect	text18,local,class=CODE,merge=1,delta=2
    37                           	psect	text19,local,class=CODE,merge=1,delta=2
    38                           	psect	intentry,global,class=CODE,delta=2
    39                           	psect	text21,local,class=CODE,merge=1,delta=2
    40                           	psect	text22,local,class=CODE,merge=1,delta=2
    41                           	psect	text23,local,class=CODE,merge=1,delta=2
    42                           	dabs	1,0x7E,2
    43  0000                     
    44                           ; Version 2.10
    45                           ; Generated 31/07/2019 GMT
    46                           ; 
    47                           ; Copyright © 2019, Microchip Technology Inc. and its subsidiaries ("Microchip")
    48                           ; All rights reserved.
    49                           ; 
    50                           ; This software is developed by Microchip Technology Inc. and its subsidiaries ("Microch
      +                          ip").
    51                           ; 
    52                           ; Redistribution and use in source and binary forms, with or without modification, are
    53                           ; permitted provided that the following conditions are met:
    54                           ; 
    55                           ;     1. Redistributions of source code must retain the above copyright notice, this lis
      +                          t of
    56                           ;        conditions and the following disclaimer.
    57                           ; 
    58                           ;     2. Redistributions in binary form must reproduce the above copyright notice, this 
      +                          list
    59                           ;        of conditions and the following disclaimer in the documentation and/or other
    60                           ;        materials provided with the distribution.
    61                           ; 
    62                           ;     3. Microchip's name may not be used to endorse or promote products derived from th
      +                          is
    63                           ;        software without specific prior written permission.
    64                           ; 
    65                           ; THIS SOFTWARE IS PROVIDED BY MICROCHIP "AS IS" AND ANY EXPRESS OR IMPLIED WARRANTIES,
    66                           ; INCLUDING, BUT NOT LIMITED TO, THE IMPLIED WARRANTIES OF MERCHANTABILITY AND FITNESS F
      +                          OR
    67                           ; PURPOSE ARE DISCLAIMED.  IN NO EVENT SHALL MICROCHIP BE LIABLE FOR ANY DIRECT, INDIREC
      +                          T,
    68                           ; INCIDENTAL, SPECIAL, EXEMPLARY, OR CONSEQUENTIAL DAMAGES (INCLUDING BUT NOT LIMITED TO
    69                           ; PROCUREMENT OF SUBSTITUTE GOODS OR SERVICES; LOSS OF USE, DATA OR PROFITS; OR BUSINESS
    70                           ; INTERRUPTION) HOWSOEVER CAUSED AND ON ANY THEORY OF LIABILITY, WHETHER IN CONTRACT, ST
      +                          RICT
    71                           ; LIABILITY, OR TORT (INCLUDING NEGLIGENCE OR OTHERWISE) ARISING IN ANY WAY OUT OF THE U
      +                          SE OF
    72                           ; THIS SOFTWARE, EVEN IF ADVISED OF THE POSSIBILITY OF SUCH DAMAGE.
    73                           ; 
    74                           ; 
    75                           ; Code-generator required, PIC16F1519 Definitions
    76                           ; 
    77                           ; SFR Addresses
    78  0000                     	;# 
    79  0001                     	;# 
    80  0002                     	;# 
    81  0003                     	;# 
    82  0004                     	;# 
    83  0005                     	;# 
    84  0006                     	;# 
    85  0007                     	;# 
    86  0008                     	;# 
    87  0009                     	;# 
    88  000A                     	;# 
    89  000B                     	;# 
    90  000C                     	;# 
    91  000D                     	;# 
    92  000E                     	;# 
    93  000F                     	;# 
    94  0010                     	;# 
    95  0011                     	;# 
    96  0012                     	;# 
    97  0015                     	;# 
    98  0016                     	;# 
    99  0016                     	;# 
   100  0017                     	;# 
   101  0018                     	;# 
   102  0019                     	;# 
   103  001A                     	;# 
   104  001B                     	;# 
   105  001C                     	;# 
   106  008C                     	;# 
   107  008D                     	;# 
   108  008E                     	;# 
   109  008F                     	;# 
   110  0090                     	;# 
   111  0091                     	;# 
   112  0092                     	;# 
   113  0095                     	;# 
   114  0096                     	;# 
   115  0097                     	;# 
   116  0099                     	;# 
   117  009A                     	;# 
   118  009B                     	;# 
   119  009B                     	;# 
   120  009C                     	;# 
   121  009D                     	;# 
   122  009E                     	;# 
   123  010C                     	;# 
   124  010D                     	;# 
   125  010E                     	;# 
   126  010F                     	;# 
   127  0110                     	;# 
   128  0116                     	;# 
   129  0117                     	;# 
   130  011D                     	;# 
   131  018C                     	;# 
   132  018D                     	;# 
   133  018E                     	;# 
   134  018F                     	;# 
   135  0190                     	;# 
   136  0191                     	;# 
   137  0191                     	;# 
   138  0192                     	;# 
   139  0193                     	;# 
   140  0193                     	;# 
   141  0194                     	;# 
   142  0195                     	;# 
   143  0196                     	;# 
   144  0197                     	;# 
   145  0199                     	;# 
   146  019A                     	;# 
   147  019B                     	;# 
   148  019B                     	;# 
   149  019B                     	;# 
   150  019B                     	;# 
   151  019C                     	;# 
   152  019C                     	;# 
   153  019D                     	;# 
   154  019E                     	;# 
   155  019F                     	;# 
   156  020D                     	;# 
   157  0210                     	;# 
   158  0211                     	;# 
   159  0211                     	;# 
   160  0212                     	;# 
   161  0212                     	;# 
   162  0213                     	;# 
   163  0213                     	;# 
   164  0214                     	;# 
   165  0214                     	;# 
   166  0215                     	;# 
   167  0215                     	;# 
   168  0215                     	;# 
   169  0216                     	;# 
   170  0216                     	;# 
   171  0217                     	;# 
   172  0217                     	;# 
   173  0291                     	;# 
   174  0291                     	;# 
   175  0292                     	;# 
   176  0293                     	;# 
   177  0298                     	;# 
   178  0298                     	;# 
   179  0299                     	;# 
   180  029A                     	;# 
   181  0394                     	;# 
   182  0395                     	;# 
   183  0396                     	;# 
   184  0FE4                     	;# 
   185  0FE5                     	;# 
   186  0FE6                     	;# 
   187  0FE7                     	;# 
   188  0FE8                     	;# 
   189  0FE9                     	;# 
   190  0FEA                     	;# 
   191  0FEB                     	;# 
   192  0FED                     	;# 
   193  0FEE                     	;# 
   194  0FEF                     	;# 
   195  0000                     	;# 
   196  0001                     	;# 
   197  0002                     	;# 
   198  0003                     	;# 
   199  0004                     	;# 
   200  0005                     	;# 
   201  0006                     	;# 
   202  0007                     	;# 
   203  0008                     	;# 
   204  0009                     	;# 
   205  000A                     	;# 
   206  000B                     	;# 
   207  000C                     	;# 
   208  000D                     	;# 
   209  000E                     	;# 
   210  000F                     	;# 
   211  0010                     	;# 
   212  0011                     	;# 
   213  0012                     	;# 
   214  0015                     	;# 
   215  0016                     	;# 
   216  0016                     	;# 
   217  0017                     	;# 
   218  0018                     	;# 
   219  0019                     	;# 
   220  001A                     	;# 
   221  001B                     	;# 
   222  001C                     	;# 
   223  008C                     	;# 
   224  008D                     	;# 
   225  008E                     	;# 
   226  008F                     	;# 
   227  0090                     	;# 
   228  0091                     	;# 
   229  0092                     	;# 
   230  0095                     	;# 
   231  0096                     	;# 
   232  0097                     	;# 
   233  0099                     	;# 
   234  009A                     	;# 
   235  009B                     	;# 
   236  009B                     	;# 
   237  009C                     	;# 
   238  009D                     	;# 
   239  009E                     	;# 
   240  010C                     	;# 
   241  010D                     	;# 
   242  010E                     	;# 
   243  010F                     	;# 
   244  0110                     	;# 
   245  0116                     	;# 
   246  0117                     	;# 
   247  011D                     	;# 
   248  018C                     	;# 
   249  018D                     	;# 
   250  018E                     	;# 
   251  018F                     	;# 
   252  0190                     	;# 
   253  0191                     	;# 
   254  0191                     	;# 
   255  0192                     	;# 
   256  0193                     	;# 
   257  0193                     	;# 
   258  0194                     	;# 
   259  0195                     	;# 
   260  0196                     	;# 
   261  0197                     	;# 
   262  0199                     	;# 
   263  019A                     	;# 
   264  019B                     	;# 
   265  019B                     	;# 
   266  019B                     	;# 
   267  019B                     	;# 
   268  019C                     	;# 
   269  019C                     	;# 
   270  019D                     	;# 
   271  019E                     	;# 
   272  019F                     	;# 
   273  020D                     	;# 
   274  0210                     	;# 
   275  0211                     	;# 
   276  0211                     	;# 
   277  0212                     	;# 
   278  0212                     	;# 
   279  0213                     	;# 
   280  0213                     	;# 
   281  0214                     	;# 
   282  0214                     	;# 
   283  0215                     	;# 
   284  0215                     	;# 
   285  0215                     	;# 
   286  0216                     	;# 
   287  0216                     	;# 
   288  0217                     	;# 
   289  0217                     	;# 
   290  0291                     	;# 
   291  0291                     	;# 
   292  0292                     	;# 
   293  0293                     	;# 
   294  0298                     	;# 
   295  0298                     	;# 
   296  0299                     	;# 
   297  029A                     	;# 
   298  0394                     	;# 
   299  0395                     	;# 
   300  0396                     	;# 
   301  0FE4                     	;# 
   302  0FE5                     	;# 
   303  0FE6                     	;# 
   304  0FE7                     	;# 
   305  0FE8                     	;# 
   306  0FE9                     	;# 
   307  0FEA                     	;# 
   308  0FEB                     	;# 
   309  0FED                     	;# 
   310  0FEE                     	;# 
   311  0FEF                     	;# 
   312  0000                     	;# 
   313  0001                     	;# 
   314  0002                     	;# 
   315  0003                     	;# 
   316  0004                     	;# 
   317  0005                     	;# 
   318  0006                     	;# 
   319  0007                     	;# 
   320  0008                     	;# 
   321  0009                     	;# 
   322  000A                     	;# 
   323  000B                     	;# 
   324  000C                     	;# 
   325  000D                     	;# 
   326  000E                     	;# 
   327  000F                     	;# 
   328  0010                     	;# 
   329  0011                     	;# 
   330  0012                     	;# 
   331  0015                     	;# 
   332  0016                     	;# 
   333  0016                     	;# 
   334  0017                     	;# 
   335  0018                     	;# 
   336  0019                     	;# 
   337  001A                     	;# 
   338  001B                     	;# 
   339  001C                     	;# 
   340  008C                     	;# 
   341  008D                     	;# 
   342  008E                     	;# 
   343  008F                     	;# 
   344  0090                     	;# 
   345  0091                     	;# 
   346  0092                     	;# 
   347  0095                     	;# 
   348  0096                     	;# 
   349  0097                     	;# 
   350  0099                     	;# 
   351  009A                     	;# 
   352  009B                     	;# 
   353  009B                     	;# 
   354  009C                     	;# 
   355  009D                     	;# 
   356  009E                     	;# 
   357  010C                     	;# 
   358  010D                     	;# 
   359  010E                     	;# 
   360  010F                     	;# 
   361  0110                     	;# 
   362  0116                     	;# 
   363  0117                     	;# 
   364  011D                     	;# 
   365  018C                     	;# 
   366  018D                     	;# 
   367  018E                     	;# 
   368  018F                     	;# 
   369  0190                     	;# 
   370  0191                     	;# 
   371  0191                     	;# 
   372  0192                     	;# 
   373  0193                     	;# 
   374  0193                     	;# 
   375  0194                     	;# 
   376  0195                     	;# 
   377  0196                     	;# 
   378  0197                     	;# 
   379  0199                     	;# 
   380  019A                     	;# 
   381  019B                     	;# 
   382  019B                     	;# 
   383  019B                     	;# 
   384  019B                     	;# 
   385  019C                     	;# 
   386  019C                     	;# 
   387  019D                     	;# 
   388  019E                     	;# 
   389  019F                     	;# 
   390  020D                     	;# 
   391  0210                     	;# 
   392  0211                     	;# 
   393  0211                     	;# 
   394  0212                     	;# 
   395  0212                     	;# 
   396  0213                     	;# 
   397  0213                     	;# 
   398  0214                     	;# 
   399  0214                     	;# 
   400  0215                     	;# 
   401  0215                     	;# 
   402  0215                     	;# 
   403  0216                     	;# 
   404  0216                     	;# 
   405  0217                     	;# 
   406  0217                     	;# 
   407  0291                     	;# 
   408  0291                     	;# 
   409  0292                     	;# 
   410  0293                     	;# 
   411  0298                     	;# 
   412  0298                     	;# 
   413  0299                     	;# 
   414  029A                     	;# 
   415  0394                     	;# 
   416  0395                     	;# 
   417  0396                     	;# 
   418  0FE4                     	;# 
   419  0FE5                     	;# 
   420  0FE6                     	;# 
   421  0FE7                     	;# 
   422  0FE8                     	;# 
   423  0FE9                     	;# 
   424  0FEA                     	;# 
   425  0FEB                     	;# 
   426  0FED                     	;# 
   427  0FEE                     	;# 
   428  0FEF                     	;# 
   429  0000                     	;# 
   430  0001                     	;# 
   431  0002                     	;# 
   432  0003                     	;# 
   433  0004                     	;# 
   434  0005                     	;# 
   435  0006                     	;# 
   436  0007                     	;# 
   437  0008                     	;# 
   438  0009                     	;# 
   439  000A                     	;# 
   440  000B                     	;# 
   441  000C                     	;# 
   442  000D                     	;# 
   443  000E                     	;# 
   444  000F                     	;# 
   445  0010                     	;# 
   446  0011                     	;# 
   447  0012                     	;# 
   448  0015                     	;# 
   449  0016                     	;# 
   450  0016                     	;# 
   451  0017                     	;# 
   452  0018                     	;# 
   453  0019                     	;# 
   454  001A                     	;# 
   455  001B                     	;# 
   456  001C                     	;# 
   457  008C                     	;# 
   458  008D                     	;# 
   459  008E                     	;# 
   460  008F                     	;# 
   461  0090                     	;# 
   462  0091                     	;# 
   463  0092                     	;# 
   464  0095                     	;# 
   465  0096                     	;# 
   466  0097                     	;# 
   467  0099                     	;# 
   468  009A                     	;# 
   469  009B                     	;# 
   470  009B                     	;# 
   471  009C                     	;# 
   472  009D                     	;# 
   473  009E                     	;# 
   474  010C                     	;# 
   475  010D                     	;# 
   476  010E                     	;# 
   477  010F                     	;# 
   478  0110                     	;# 
   479  0116                     	;# 
   480  0117                     	;# 
   481  011D                     	;# 
   482  018C                     	;# 
   483  018D                     	;# 
   484  018E                     	;# 
   485  018F                     	;# 
   486  0190                     	;# 
   487  0191                     	;# 
   488  0191                     	;# 
   489  0192                     	;# 
   490  0193                     	;# 
   491  0193                     	;# 
   492  0194                     	;# 
   493  0195                     	;# 
   494  0196                     	;# 
   495  0197                     	;# 
   496  0199                     	;# 
   497  019A                     	;# 
   498  019B                     	;# 
   499  019B                     	;# 
   500  019B                     	;# 
   501  019B                     	;# 
   502  019C                     	;# 
   503  019C                     	;# 
   504  019D                     	;# 
   505  019E                     	;# 
   506  019F                     	;# 
   507  020D                     	;# 
   508  0210                     	;# 
   509  0211                     	;# 
   510  0211                     	;# 
   511  0212                     	;# 
   512  0212                     	;# 
   513  0213                     	;# 
   514  0213                     	;# 
   515  0214                     	;# 
   516  0214                     	;# 
   517  0215                     	;# 
   518  0215                     	;# 
   519  0215                     	;# 
   520  0216                     	;# 
   521  0216                     	;# 
   522  0217                     	;# 
   523  0217                     	;# 
   524  0291                     	;# 
   525  0291                     	;# 
   526  0292                     	;# 
   527  0293                     	;# 
   528  0298                     	;# 
   529  0298                     	;# 
   530  0299                     	;# 
   531  029A                     	;# 
   532  0394                     	;# 
   533  0395                     	;# 
   534  0396                     	;# 
   535  0FE4                     	;# 
   536  0FE5                     	;# 
   537  0FE6                     	;# 
   538  0FE7                     	;# 
   539  0FE8                     	;# 
   540  0FE9                     	;# 
   541  0FEA                     	;# 
   542  0FEB                     	;# 
   543  0FED                     	;# 
   544  0FEE                     	;# 
   545  0FEF                     	;# 
   546  0000                     	;# 
   547  0001                     	;# 
   548  0002                     	;# 
   549  0003                     	;# 
   550  0004                     	;# 
   551  0005                     	;# 
   552  0006                     	;# 
   553  0007                     	;# 
   554  0008                     	;# 
   555  0009                     	;# 
   556  000A                     	;# 
   557  000B                     	;# 
   558  000C                     	;# 
   559  000D                     	;# 
   560  000E                     	;# 
   561  000F                     	;# 
   562  0010                     	;# 
   563  0011                     	;# 
   564  0012                     	;# 
   565  0015                     	;# 
   566  0016                     	;# 
   567  0016                     	;# 
   568  0017                     	;# 
   569  0018                     	;# 
   570  0019                     	;# 
   571  001A                     	;# 
   572  001B                     	;# 
   573  001C                     	;# 
   574  008C                     	;# 
   575  008D                     	;# 
   576  008E                     	;# 
   577  008F                     	;# 
   578  0090                     	;# 
   579  0091                     	;# 
   580  0092                     	;# 
   581  0095                     	;# 
   582  0096                     	;# 
   583  0097                     	;# 
   584  0099                     	;# 
   585  009A                     	;# 
   586  009B                     	;# 
   587  009B                     	;# 
   588  009C                     	;# 
   589  009D                     	;# 
   590  009E                     	;# 
   591  010C                     	;# 
   592  010D                     	;# 
   593  010E                     	;# 
   594  010F                     	;# 
   595  0110                     	;# 
   596  0116                     	;# 
   597  0117                     	;# 
   598  011D                     	;# 
   599  018C                     	;# 
   600  018D                     	;# 
   601  018E                     	;# 
   602  018F                     	;# 
   603  0190                     	;# 
   604  0191                     	;# 
   605  0191                     	;# 
   606  0192                     	;# 
   607  0193                     	;# 
   608  0193                     	;# 
   609  0194                     	;# 
   610  0195                     	;# 
   611  0196                     	;# 
   612  0197                     	;# 
   613  0199                     	;# 
   614  019A                     	;# 
   615  019B                     	;# 
   616  019B                     	;# 
   617  019B                     	;# 
   618  019B                     	;# 
   619  019C                     	;# 
   620  019C                     	;# 
   621  019D                     	;# 
   622  019E                     	;# 
   623  019F                     	;# 
   624  020D                     	;# 
   625  0210                     	;# 
   626  0211                     	;# 
   627  0211                     	;# 
   628  0212                     	;# 
   629  0212                     	;# 
   630  0213                     	;# 
   631  0213                     	;# 
   632  0214                     	;# 
   633  0214                     	;# 
   634  0215                     	;# 
   635  0215                     	;# 
   636  0215                     	;# 
   637  0216                     	;# 
   638  0216                     	;# 
   639  0217                     	;# 
   640  0217                     	;# 
   641  0291                     	;# 
   642  0291                     	;# 
   643  0292                     	;# 
   644  0293                     	;# 
   645  0298                     	;# 
   646  0298                     	;# 
   647  0299                     	;# 
   648  029A                     	;# 
   649  0394                     	;# 
   650  0395                     	;# 
   651  0396                     	;# 
   652  0FE4                     	;# 
   653  0FE5                     	;# 
   654  0FE6                     	;# 
   655  0FE7                     	;# 
   656  0FE8                     	;# 
   657  0FE9                     	;# 
   658  0FEA                     	;# 
   659  0FEB                     	;# 
   660  0FED                     	;# 
   661  0FEE                     	;# 
   662  0FEF                     	;# 
   663  0000                     	;# 
   664  0001                     	;# 
   665  0002                     	;# 
   666  0003                     	;# 
   667  0004                     	;# 
   668  0005                     	;# 
   669  0006                     	;# 
   670  0007                     	;# 
   671  0008                     	;# 
   672  0009                     	;# 
   673  000A                     	;# 
   674  000B                     	;# 
   675  000C                     	;# 
   676  000D                     	;# 
   677  000E                     	;# 
   678  000F                     	;# 
   679  0010                     	;# 
   680  0011                     	;# 
   681  0012                     	;# 
   682  0015                     	;# 
   683  0016                     	;# 
   684  0016                     	;# 
   685  0017                     	;# 
   686  0018                     	;# 
   687  0019                     	;# 
   688  001A                     	;# 
   689  001B                     	;# 
   690  001C                     	;# 
   691  008C                     	;# 
   692  008D                     	;# 
   693  008E                     	;# 
   694  008F                     	;# 
   695  0090                     	;# 
   696  0091                     	;# 
   697  0092                     	;# 
   698  0095                     	;# 
   699  0096                     	;# 
   700  0097                     	;# 
   701  0099                     	;# 
   702  009A                     	;# 
   703  009B                     	;# 
   704  009B                     	;# 
   705  009C                     	;# 
   706  009D                     	;# 
   707  009E                     	;# 
   708  010C                     	;# 
   709  010D                     	;# 
   710  010E                     	;# 
   711  010F                     	;# 
   712  0110                     	;# 
   713  0116                     	;# 
   714  0117                     	;# 
   715  011D                     	;# 
   716  018C                     	;# 
   717  018D                     	;# 
   718  018E                     	;# 
   719  018F                     	;# 
   720  0190                     	;# 
   721  0191                     	;# 
   722  0191                     	;# 
   723  0192                     	;# 
   724  0193                     	;# 
   725  0193                     	;# 
   726  0194                     	;# 
   727  0195                     	;# 
   728  0196                     	;# 
   729  0197                     	;# 
   730  0199                     	;# 
   731  019A                     	;# 
   732  019B                     	;# 
   733  019B                     	;# 
   734  019B                     	;# 
   735  019B                     	;# 
   736  019C                     	;# 
   737  019C                     	;# 
   738  019D                     	;# 
   739  019E                     	;# 
   740  019F                     	;# 
   741  020D                     	;# 
   742  0210                     	;# 
   743  0211                     	;# 
   744  0211                     	;# 
   745  0212                     	;# 
   746  0212                     	;# 
   747  0213                     	;# 
   748  0213                     	;# 
   749  0214                     	;# 
   750  0214                     	;# 
   751  0215                     	;# 
   752  0215                     	;# 
   753  0215                     	;# 
   754  0216                     	;# 
   755  0216                     	;# 
   756  0217                     	;# 
   757  0217                     	;# 
   758  0291                     	;# 
   759  0291                     	;# 
   760  0292                     	;# 
   761  0293                     	;# 
   762  0298                     	;# 
   763  0298                     	;# 
   764  0299                     	;# 
   765  029A                     	;# 
   766  0394                     	;# 
   767  0395                     	;# 
   768  0396                     	;# 
   769  0FE4                     	;# 
   770  0FE5                     	;# 
   771  0FE6                     	;# 
   772  0FE7                     	;# 
   773  0FE8                     	;# 
   774  0FE9                     	;# 
   775  0FEA                     	;# 
   776  0FEB                     	;# 
   777  0FED                     	;# 
   778  0FEE                     	;# 
   779  0FEF                     	;# 
   780                           
   781                           	psect	stringtext1
   782  0233                     __pstringtext1:	
   783  0233                     _I2C_PACKAGE_EMPTY:	
   784  0233  3400               	retlw	0
   785  0234  3400               	retlw	0
   786  0235  3400               	retlw	0
   787  0236  3400               	retlw	0
   788  0237  3400               	retlw	0
   789  0238  3400               	retlw	0
   790  0239  3400               	retlw	0
   791  023A  3400               	retlw	0
   792  023B  3400               	retlw	0
   793  023C  3400               	retlw	0
   794  023D  3400               	retlw	0
   795  023E  3400               	retlw	0
   796  023F  3400               	retlw	0
   797  0240  3400               	retlw	0
   798  0241  3400               	retlw	0
   799  0242  3400               	retlw	0
   800  0243  3400               	retlw	0
   801  0244  3400               	retlw	0
   802  0245  3400               	retlw	0
   803  0246  3400               	retlw	0
   804  0247  3400               	retlw	0
   805  0248  3400               	retlw	0
   806  0249  3400               	retlw	0
   807  024A  3400               	retlw	0
   808  024B  3400               	retlw	0
   809  024C  3400               	retlw	0
   810  024D  3400               	retlw	0
   811  024E  3400               	retlw	0
   812  024F  3400               	retlw	0
   813  0250  3400               	retlw	0
   814  0251  3400               	retlw	0
   815  0252  3400               	retlw	0
   816  0253  3400               	retlw	0
   817  0254  3400               	retlw	0
   818  0255                     __end_of_I2C_PACKAGE_EMPTY:	
   819  0015                     _TMR0	set	21
   820  000B                     _INTCONbits	set	11
   821  005A                     _T0IF	set	90
   822  005D                     _T0IE	set	93
   823  008B                     _SSPIF	set	139
   824  0095                     _OPTION_REGbits	set	149
   825  008E                     _TRISCbits	set	142
   826  008F                     _TRISD	set	143
   827  008E                     _TRISC	set	142
   828  008D                     _TRISB	set	141
   829  008C                     _TRISA	set	140
   830  0099                     _OSCCONbits	set	153
   831  048B                     _SSPIE	set	1163
   832  010E                     _LATCbits	set	270
   833  010F                     _LATD	set	271
   834  010E                     _LATC	set	270
   835  010D                     _LATB	set	269
   836  010C                     _LATA	set	268
   837  0868                     _LATB0	set	2152
   838  0869                     _LATB1	set	2153
   839  0863                     _LATA3	set	2147
   840  0862                     _LATA2	set	2146
   841  0861                     _LATA1	set	2145
   842  0860                     _LATA0	set	2144
   843  018F                     _ANSELD	set	399
   844  018E                     _ANSELC	set	398
   845  018D                     _ANSELB	set	397
   846  018C                     _ANSELA	set	396
   847  0214                     _SSPSTATbits	set	532
   848  0211                     _SSPBUF	set	529
   849  0215                     _SSPCONbits	set	533
   850  0214                     _SSPSTAT	set	532
   851  0212                     _SSPADD	set	530
   852  0217                     _SSPCON3	set	535
   853  0216                     _SSPCON2	set	534
   854  0215                     _SSPCON1	set	533
   855  10B6                     _ACKSTAT	set	4278
   856  10A0                     _BF	set	4256
   857  10A2                     _R_nW	set	4258
   858  10A5                     _D_nA	set	4261
   859  10AC                     _CKP	set	4268
   860  0255                     STR_3:	
   861  0255  342D               	retlw	45	;'-'
   862  0256  342D               	retlw	45	;'-'
   863  0257  342D               	retlw	45	;'-'
   864  0258  342D               	retlw	45	;'-'
   865  0259  342D               	retlw	45	;'-'
   866  025A  342D               	retlw	45	;'-'
   867  025B  342D               	retlw	45	;'-'
   868  025C  342D               	retlw	45	;'-'
   869  025D  342D               	retlw	45	;'-'
   870  025E  342D               	retlw	45	;'-'
   871  025F  342D               	retlw	45	;'-'
   872  0260  342D               	retlw	45	;'-'
   873  0261  342D               	retlw	45	;'-'
   874  0262  342D               	retlw	45	;'-'
   875  0263  342D               	retlw	45	;'-'
   876  0264  342D               	retlw	45	;'-'
   877  0265  342D               	retlw	45	;'-'
   878  0266  342D               	retlw	45	;'-'
   879  0267  342D               	retlw	45	;'-'
   880  0268  342D               	retlw	45	;'-'
   881  0269  342D               	retlw	45	;'-'
   882  026A  342D               	retlw	45	;'-'
   883  026B  342D               	retlw	45	;'-'
   884  026C  342D               	retlw	45	;'-'
   885  026D  342D               	retlw	45	;'-'
   886  026E  3400               	retlw	0
   887                           
   888                           	psect	stringtext2
   889  035E                     __pstringtext2:	
   890  035E                     STR_2:	
   891  035E  3461               	retlw	97	;'a'
   892  035F  3464               	retlw	100	;'d'
   893  0360  3464               	retlw	100	;'d'
   894  0361  343A               	retlw	58	;':'
   895  0362  3420               	retlw	32	;' '
   896  0363  3420               	retlw	32	;' '
   897  0364  3464               	retlw	100	;'d'
   898  0365  3461               	retlw	97	;'a'
   899  0366  3474               	retlw	116	;'t'
   900  0367  3461               	retlw	97	;'a'
   901  0368  343A               	retlw	58	;':'
   902  0369  3420               	retlw	32	;' '
   903  036A  3420               	retlw	32	;' '
   904  036B  3449               	retlw	73	;'I'
   905  036C  3432               	retlw	50	;'2'
   906  036D  3443               	retlw	67	;'C'
   907  036E  3400               	retlw	0
   908                           
   909                           	psect	stringtext3
   910  038C                     __pstringtext3:	
   911  038C                     STR_1:	
   912  038C  3457               	retlw	87	;'W'
   913  038D  3461               	retlw	97	;'a'
   914  038E  3469               	retlw	105	;'i'
   915  038F  3474               	retlw	116	;'t'
   916  0390  3469               	retlw	105	;'i'
   917  0391  346E               	retlw	110	;'n'
   918  0392  3467               	retlw	103	;'g'
   919  0393  3420               	retlw	32	;' '
   920  0394  342E               	retlw	46	;'.'
   921  0395  342E               	retlw	46	;'.'
   922  0396  342E               	retlw	46	;'.'
   923  0397  3400               	retlw	0
   924                           
   925                           	psect	stringtext4
   926  0000                     __pstringtext4:	
   927  0255                     
   928                           ; #config settings
   929  0000                     
   930                           	psect	cinit
   931  0023                     start_initialization:	
   932  0023                     __initialization:	
   933                           
   934                           ; Clear objects allocated to COMMON
   935  0023  01FA               	clrf	__pbssCOMMON& (0+127)
   936                           
   937                           ; Clear objects allocated to BANK0
   938  0024  3020               	movlw	low __pbssBANK0
   939  0025  0084               	movwf	4
   940  0026  3000               	movlw	high __pbssBANK0
   941  0027  0085               	movwf	5
   942  0028  3022               	movlw	34
   943  0029  3183  23C5  3180   	fcall	clear_ram0
   944                           
   945                           ; Clear objects allocated to BANK1
   946  002C  30CD               	movlw	low __pbssBANK1
   947  002D  0084               	movwf	4
   948  002E  3000               	movlw	high __pbssBANK1
   949  002F  0085               	movwf	5
   950  0030  3023               	movlw	35
   951  0031  3183  23C5  3180   	fcall	clear_ram0
   952                           
   953                           ; Clear objects allocated to BANK2
   954  0034  3020               	movlw	low __pbssBANK2
   955  0035  0084               	movwf	4
   956  0036  3001               	movlw	high __pbssBANK2
   957  0037  0085               	movwf	5
   958  0038  3022               	movlw	34
   959  0039  3183  23C5  3180   	fcall	clear_ram0
   960  003C                     end_of_initialization:	
   961                           ;End of C runtime variable initialization code
   962                           
   963  003C                     __end_of__initialization:	
   964  003C  107E               	bcf	int$flags,0	;clear compiler interrupt flag (level 1)
   965  003D  0020               	movlb	0
   966  003E  3183  2B07         	ljmp	_main	;jump to C main() function
   967                           
   968                           	psect	bssCOMMON
   969  007A                     __pbssCOMMON:	
   970  007A                     _display:	
   971  007A                     	ds	1
   972                           
   973                           	psect	bssBANK0
   974  0020                     __pbssBANK0:	
   975  0020                     _current_package:	
   976  0020                     	ds	34
   977                           
   978                           	psect	bssBANK1
   979  00CD                     __pbssBANK1:	
   980  00CD                     _I2C_PACKAGE:	
   981  00CD                     	ds	34
   982  00EF                     _INT_FLAGS:	
   983  00EF                     	ds	1
   984                           
   985                           	psect	bssBANK2
   986  0120                     __pbssBANK2:	
   987  0120                     _MASKED_I2C_PACKAGE:	
   988  0120                     	ds	34
   989                           
   990                           	psect	clrtext
   991  03C5                     clear_ram0:	
   992                           ;	Called with FSR0 containing the base address, and
   993                           ;	WREG with the size to clear
   994                           
   995  03C5  0064               	clrwdt	;clear the watchdog before getting into this loop
   996  03C6                     clrloop0:	
   997  03C6  0180               	clrf	0	;clear RAM location pointed to by FSR
   998  03C7  3101               	addfsr 0,1
   999  03C8  0B89               	decfsz	9,f	;Have we reached the end of clearing yet?
  1000  03C9  2BC6               	goto	clrloop0	;have we reached the end yet?
  1001  03CA  3400               	retlw	0	;all done for this memory range, return
  1002                           
  1003                           	psect	cstackBANK2
  1004  0142                     __pcstackBANK2:	
  1005  0142                     ??_display_i2c_data:	
  1006                           
  1007                           ; 1 bytes @ 0x0
  1008  0142                     	ds	3
  1009  0145                     ??_update_display:	
  1010                           
  1011                           ; 1 bytes @ 0x3
  1012  0145                     	ds	1
  1013                           
  1014                           	psect	cstackBANK1
  1015  00A0                     __pcstackBANK1:	
  1016  00A0                     ??_lcd_display_write_string:	
  1017  00A0                     ___awdiv@counter:	
  1018                           ; 1 bytes @ 0x0
  1019                           
  1020                           
  1021                           ; 1 bytes @ 0x0
  1022  00A0                     	ds	1
  1023  00A1                     ___awdiv@sign:	
  1024  00A1                     lcd_display_write_string@i:	
  1025                           ; 1 bytes @ 0x1
  1026                           
  1027                           
  1028                           ; 2 bytes @ 0x1
  1029  00A1                     	ds	1
  1030  00A2                     ___awdiv@quotient:	
  1031                           
  1032                           ; 2 bytes @ 0x2
  1033  00A2                     	ds	2
  1034  00A4                     ??_lcd_display_set_cursor:	
  1035                           
  1036                           ; 1 bytes @ 0x4
  1037  00A4                     	ds	2
  1038  00A6                     lcd_display_set_cursor@a:	
  1039                           
  1040                           ; 1 bytes @ 0x6
  1041  00A6                     	ds	1
  1042  00A7                     lcd_display_set_cursor@z:	
  1043                           
  1044                           ; 1 bytes @ 0x7
  1045  00A7                     	ds	1
  1046  00A8                     lcd_display_set_cursor@y:	
  1047                           
  1048                           ; 1 bytes @ 0x8
  1049  00A8                     	ds	1
  1050  00A9                     lcd_display_set_cursor@temp:	
  1051                           
  1052                           ; 1 bytes @ 0x9
  1053  00A9                     	ds	1
  1054  00AA                     ?_display_i2c_data:	
  1055  00AA                     display_i2c_data@i2c_package:	
  1056                           ; 1 bytes @ 0xA
  1057                           
  1058                           
  1059                           ; 34 bytes @ 0xA
  1060  00AA                     	ds	34
  1061  00CC                     display_i2c_data@i:	
  1062                           
  1063                           ; 1 bytes @ 0x2C
  1064  00CC                     	ds	1
  1065                           
  1066                           	psect	cstackCOMMON
  1067  0070                     __pcstackCOMMON:	
  1068  0070                     ?_init:	
  1069  0070                     ?_lcd_display_init:	
  1070                           ; 1 bytes @ 0x0
  1071                           
  1072  0070                     ?_lcd_display_clear:	
  1073                           ; 1 bytes @ 0x0
  1074                           
  1075  0070                     ?_update_if_flag_set:	
  1076                           ; 1 bytes @ 0x0
  1077                           
  1078  0070                     ?_update_display:	
  1079                           ; 1 bytes @ 0x0
  1080                           
  1081  0070                     ?_lcd_display_write_char:	
  1082                           ; 1 bytes @ 0x0
  1083                           
  1084  0070                     ?_init_oscillator:	
  1085                           ; 1 bytes @ 0x0
  1086                           
  1087  0070                     ?_init_ports:	
  1088                           ; 1 bytes @ 0x0
  1089                           
  1090  0070                     ?_init_i2c:	
  1091                           ; 1 bytes @ 0x0
  1092                           
  1093  0070                     ?_init_interrupt:	
  1094                           ; 1 bytes @ 0x0
  1095                           
  1096  0070                     ?_res_ports:	
  1097                           ; 1 bytes @ 0x0
  1098                           
  1099  0070                     ?_set_ports:	
  1100                           ; 1 bytes @ 0x0
  1101                           
  1102  0070                     ?_init_interrupt_timer:	
  1103                           ; 1 bytes @ 0x0
  1104                           
  1105  0070                     ?_on_interrupt_i2c:	
  1106                           ; 1 bytes @ 0x0
  1107                           
  1108  0070                     ?_on_interrupt_timer_0:	
  1109                           ; 1 bytes @ 0x0
  1110                           
  1111  0070                     ??_on_interrupt_timer_0:	
  1112                           ; 1 bytes @ 0x0
  1113                           
  1114  0070                     ??_update_i2c_related_variables:	
  1115                           ; 1 bytes @ 0x0
  1116                           
  1117  0070                     ?_main:	
  1118                           ; 1 bytes @ 0x0
  1119                           
  1120  0070                     ?_interruptHandler:	
  1121                           ; 1 bytes @ 0x0
  1122                           
  1123  0070                     ?_lcd_display_port:	
  1124                           ; 1 bytes @ 0x0
  1125                           
  1126  0070                     ?_lcd_display_cmd:	
  1127                           ; 1 bytes @ 0x0
  1128                           
  1129                           
  1130                           ; 1 bytes @ 0x0
  1131  0070                     	ds	1
  1132  0071                     ??_on_interrupt_i2c:	
  1133                           
  1134                           ; 1 bytes @ 0x1
  1135  0071                     	ds	2
  1136  0073                     ??_init:	
  1137  0073                     ??_init_oscillator:	
  1138                           ; 1 bytes @ 0x3
  1139                           
  1140  0073                     ??_init_ports:	
  1141                           ; 1 bytes @ 0x3
  1142                           
  1143  0073                     ??_init_i2c:	
  1144                           ; 1 bytes @ 0x3
  1145                           
  1146  0073                     ??_init_interrupt:	
  1147                           ; 1 bytes @ 0x3
  1148                           
  1149  0073                     ??_res_ports:	
  1150                           ; 1 bytes @ 0x3
  1151                           
  1152  0073                     ??_set_ports:	
  1153                           ; 1 bytes @ 0x3
  1154                           
  1155  0073                     ??_init_interrupt_timer:	
  1156                           ; 1 bytes @ 0x3
  1157                           
  1158  0073                     ??_interruptHandler:	
  1159                           ; 1 bytes @ 0x3
  1160                           
  1161  0073                     ??_lcd_display_port:	
  1162                           ; 1 bytes @ 0x3
  1163                           
  1164  0073                     ?___awdiv:	
  1165                           ; 1 bytes @ 0x3
  1166                           
  1167  0073                     lcd_display_port@a:	
  1168                           ; 2 bytes @ 0x3
  1169                           
  1170  0073                     ___awdiv@divisor:	
  1171                           ; 1 bytes @ 0x3
  1172                           
  1173                           
  1174                           ; 2 bytes @ 0x3
  1175  0073                     	ds	1
  1176  0074                     ??_lcd_display_write_char:	
  1177  0074                     ??_lcd_display_cmd:	
  1178                           ; 1 bytes @ 0x4
  1179                           
  1180                           
  1181                           ; 1 bytes @ 0x4
  1182  0074                     	ds	1
  1183  0075                     lcd_display_cmd@a:	
  1184  0075                     lcd_display_write_char@temp:	
  1185                           ; 1 bytes @ 0x5
  1186                           
  1187  0075                     ___awdiv@dividend:	
  1188                           ; 1 bytes @ 0x5
  1189                           
  1190                           
  1191                           ; 2 bytes @ 0x5
  1192  0075                     	ds	1
  1193  0076                     ??_lcd_display_init:	
  1194  0076                     ??_lcd_display_clear:	
  1195                           ; 1 bytes @ 0x6
  1196                           
  1197  0076                     lcd_display_write_char@y:	
  1198                           ; 1 bytes @ 0x6
  1199                           
  1200                           
  1201                           ; 1 bytes @ 0x6
  1202  0076                     	ds	1
  1203  0077                     ??___awdiv:	
  1204  0077                     lcd_display_write_char@a:	
  1205                           ; 1 bytes @ 0x7
  1206                           
  1207                           
  1208                           ; 1 bytes @ 0x7
  1209  0077                     	ds	1
  1210  0078                     ?_lcd_display_set_cursor:	
  1211  0078                     ?_lcd_display_write_string:	
  1212                           ; 1 bytes @ 0x8
  1213                           
  1214  0078                     lcd_display_set_cursor@b:	
  1215                           ; 1 bytes @ 0x8
  1216                           
  1217  0078                     lcd_display_write_string@a:	
  1218                           ; 1 bytes @ 0x8
  1219                           
  1220                           
  1221                           ; 2 bytes @ 0x8
  1222  0078                     	ds	2
  1223  007A                     ??_update_if_flag_set:	
  1224  007A                     ??_main:	
  1225                           ; 1 bytes @ 0xA
  1226                           
  1227                           
  1228                           	psect	cstackBANK0
  1229  0042                     __pcstackBANK0:	
  1230                           ; 1 bytes @ 0xA
  1231                           
  1232  0042                     ?_update_i2c_related_variables:	
  1233  0042                     update_i2c_related_variables@package:	
  1234                           ; 1 bytes @ 0x0
  1235                           
  1236                           
  1237                           ; 34 bytes @ 0x0
  1238  0042                     	ds	34
  1239                           
  1240                           	psect	maintext
  1241  0307                     __pmaintext:	
  1242 ;;
  1243 ;;Main: autosize = 0, tempsize = 0, incstack = 0, save=0
  1244 ;;
  1245 ;; *************** function _main *****************
  1246 ;; Defined at:
  1247 ;;		line 16 in file "i2c_lcd_display_1519.c"
  1248 ;; Parameters:    Size  Location     Type
  1249 ;;		None
  1250 ;; Auto vars:     Size  Location     Type
  1251 ;;		None
  1252 ;; Return value:  Size  Location     Type
  1253 ;;                  1    wreg      void 
  1254 ;; Registers used:
  1255 ;;		wreg, fsr0l, fsr0h, fsr1l, fsr1h, status,2, status,0, pclath, cstack
  1256 ;; Tracked objects:
  1257 ;;		On entry : B1F/0
  1258 ;;		On exit  : 0/0
  1259 ;;		Unchanged: 0/0
  1260 ;; Data sizes:     COMMON   BANK0   BANK1   BANK2   BANK3   BANK4   BANK5   BANK6   BANK7   BANK8   BANK9  BANK10  BANK1
      +1  BANK12
  1261 ;;      Params:         0       0       0       0       0       0       0       0       0       0       0       0       
      +0       0
  1262 ;;      Locals:         0       0       0       0       0       0       0       0       0       0       0       0       
      +0       0
  1263 ;;      Temps:          0       0       0       0       0       0       0       0       0       0       0       0       
      +0       0
  1264 ;;      Totals:         0       0       0       0       0       0       0       0       0       0       0       0       
      +0       0
  1265 ;;Total ram usage:        0 bytes
  1266 ;; Hardware stack levels required when called:    9
  1267 ;; This function calls:
  1268 ;;		_init
  1269 ;;		_lcd_display_clear
  1270 ;;		_lcd_display_init
  1271 ;;		_lcd_display_set_cursor
  1272 ;;		_lcd_display_write_string
  1273 ;;		_update_if_flag_set
  1274 ;; This function is called by:
  1275 ;;		Startup code after reset
  1276 ;; This function uses a non-reentrant model
  1277 ;;
  1278                           
  1279                           
  1280                           ;psect for function _main
  1281  0307                     _main:	
  1282  0307                     l1529:	
  1283                           ;incstack = 0
  1284                           ; Regs used in _main: [wreg-fsr1h+status,2+status,0+pclath+cstack]
  1285                           
  1286                           
  1287                           ;i2c_lcd_display_1519.c: 19:     init();
  1288  0307  3183  237F  3183   	fcall	_init
  1289                           
  1290                           ;i2c_lcd_display_1519.c: 21:     lcd_display_init();
  1291  030A  3181  21F0  3183   	fcall	_lcd_display_init
  1292                           
  1293                           ;i2c_lcd_display_1519.c: 23:     lcd_display_clear();
  1294  030D  3183  23AE  3183   	fcall	_lcd_display_clear
  1295                           
  1296                           ;i2c_lcd_display_1519.c: 24:     lcd_display_set_cursor(1,1);
  1297  0310  01F8               	clrf	lcd_display_set_cursor@b
  1298  0311  0AF8               	incf	lcd_display_set_cursor@b,f
  1299  0312  3001               	movlw	1
  1300  0313  3181  21A7  3183   	fcall	_lcd_display_set_cursor
  1301  0316                     l1531:	
  1302                           
  1303                           ;i2c_lcd_display_1519.c: 25:     lcd_display_write_string("Waiting ...");
  1304  0316  308C               	movlw	low (STR_1| (0+32768))
  1305  0317  00F8               	movwf	lcd_display_write_string@a
  1306  0318  3083               	movlw	high (STR_1| (0+32768))
  1307  0319  00F9               	movwf	lcd_display_write_string@a+1
  1308  031A  3182  22E8  3183   	fcall	_lcd_display_write_string
  1309  031D                     l1533:	
  1310                           
  1311                           ;i2c_lcd_display_1519.c: 29:         update_if_flag_set();
  1312  031D  3183  23A4  3183   	fcall	_update_if_flag_set
  1313                           
  1314                           ;i2c_lcd_display_1519.c: 30:     }
  1315  0320  2B1D               	goto	l1533
  1316  0321  3180  2821         	ljmp	start
  1317  0323                     __end_of_main:	
  1318                           
  1319                           	psect	text1
  1320  03A4                     __ptext1:	
  1321 ;; *************** function _update_if_flag_set *****************
  1322 ;; Defined at:
  1323 ;;		line 35 in file "i2c_lcd_display_1519.c"
  1324 ;; Parameters:    Size  Location     Type
  1325 ;;		None
  1326 ;; Auto vars:     Size  Location     Type
  1327 ;;		None
  1328 ;; Return value:  Size  Location     Type
  1329 ;;                  1    wreg      void 
  1330 ;; Registers used:
  1331 ;;		wreg, fsr0l, fsr0h, fsr1l, fsr1h, status,2, status,0, pclath, cstack
  1332 ;; Tracked objects:
  1333 ;;		On entry : 0/0
  1334 ;;		On exit  : 0/0
  1335 ;;		Unchanged: 0/0
  1336 ;; Data sizes:     COMMON   BANK0   BANK1   BANK2   BANK3   BANK4   BANK5   BANK6   BANK7   BANK8   BANK9  BANK10  BANK1
      +1  BANK12
  1337 ;;      Params:         0       0       0       0       0       0       0       0       0       0       0       0       
      +0       0
  1338 ;;      Locals:         0       0       0       0       0       0       0       0       0       0       0       0       
      +0       0
  1339 ;;      Temps:          0       0       0       0       0       0       0       0       0       0       0       0       
      +0       0
  1340 ;;      Totals:         0       0       0       0       0       0       0       0       0       0       0       0       
      +0       0
  1341 ;;Total ram usage:        0 bytes
  1342 ;; Hardware stack levels used:    1
  1343 ;; Hardware stack levels required when called:    8
  1344 ;; This function calls:
  1345 ;;		_update_display
  1346 ;; This function is called by:
  1347 ;;		_main
  1348 ;; This function uses a non-reentrant model
  1349 ;;
  1350                           
  1351                           
  1352                           ;psect for function _update_if_flag_set
  1353  03A4                     _update_if_flag_set:	
  1354  03A4                     l1523:	
  1355                           ;incstack = 0
  1356                           ; Regs used in _update_if_flag_set: [wreg-fsr1h+status,2+status,0+pclath+cstack]
  1357                           
  1358                           
  1359                           ;i2c_lcd_display_1519.c: 37:     if (INT_FLAGS.update_lcd_display){
  1360  03A4  0021               	movlb	1	; select bank1
  1361  03A5  1C6F               	btfss	_INT_FLAGS^(0+128),0	;volatile
  1362  03A6  2BA8               	goto	u1191
  1363  03A7  2BA9               	goto	u1190
  1364  03A8                     u1191:	
  1365  03A8  2BAD               	goto	l39
  1366  03A9                     u1190:	
  1367  03A9                     l1525:	
  1368                           
  1369                           ;i2c_lcd_display_1519.c: 38:         INT_FLAGS.update_lcd_display = 0;
  1370  03A9  106F               	bcf	_INT_FLAGS^(0+128),0	;volatile
  1371  03AA                     l1527:	
  1372                           
  1373                           ;i2c_lcd_display_1519.c: 39:         update_display();
  1374  03AA  3183  234B  3183   	fcall	_update_display
  1375  03AD                     l39:	
  1376  03AD  0008               	return
  1377  03AE                     __end_of_update_if_flag_set:	
  1378                           
  1379                           	psect	text2
  1380  034B                     __ptext2:	
  1381 ;; *************** function _update_display *****************
  1382 ;; Defined at:
  1383 ;;		line 47 in file "i2c_lcd_display_1519.c"
  1384 ;; Parameters:    Size  Location     Type
  1385 ;;		None
  1386 ;; Auto vars:     Size  Location     Type
  1387 ;;		None
  1388 ;; Return value:  Size  Location     Type
  1389 ;;                  1    wreg      void 
  1390 ;; Registers used:
  1391 ;;		wreg, fsr0l, fsr0h, fsr1l, fsr1h, status,2, status,0, pclath, cstack
  1392 ;; Tracked objects:
  1393 ;;		On entry : 0/0
  1394 ;;		On exit  : 0/0
  1395 ;;		Unchanged: 0/0
  1396 ;; Data sizes:     COMMON   BANK0   BANK1   BANK2   BANK3   BANK4   BANK5   BANK6   BANK7   BANK8   BANK9  BANK10  BANK1
      +1  BANK12
  1397 ;;      Params:         0       0       0       0       0       0       0       0       0       0       0       0       
      +0       0
  1398 ;;      Locals:         0       0       0       0       0       0       0       0       0       0       0       0       
      +0       0
  1399 ;;      Temps:          0       0       0       1       0       0       0       0       0       0       0       0       
      +0       0
  1400 ;;      Totals:         0       0       0       1       0       0       0       0       0       0       0       0       
      +0       0
  1401 ;;Total ram usage:        1 bytes
  1402 ;; Hardware stack levels used:    1
  1403 ;; Hardware stack levels required when called:    7
  1404 ;; This function calls:
  1405 ;;		_display_i2c_data
  1406 ;; This function is called by:
  1407 ;;		_update_if_flag_set
  1408 ;; This function uses a non-reentrant model
  1409 ;;
  1410                           
  1411                           
  1412                           ;psect for function _update_display
  1413  034B                     _update_display:	
  1414  034B                     l1509:	
  1415                           ;incstack = 0
  1416                           ; Regs used in _update_display: [wreg-fsr1h+status,2+status,0+pclath+cstack]
  1417                           
  1418                           
  1419                           ;i2c_lcd_display_1519.c: 49:     display_i2c_data (I2C_PACKAGE);
  1420  034B  30CD               	movlw	low _I2C_PACKAGE
  1421  034C  0086               	movwf	6
  1422  034D  3000               	movlw	high _I2C_PACKAGE
  1423  034E  0087               	movwf	7
  1424  034F  30AA               	movlw	low display_i2c_data@i2c_package
  1425  0350  0084               	movwf	4
  1426  0351  3000               	movlw	high display_i2c_data@i2c_package
  1427  0352  0085               	movwf	5
  1428  0353  3022               	movlw	34
  1429  0354  0022               	movlb	2	; select bank2
  1430  0355  00C5               	movwf	??_update_display^(0+256)
  1431  0356                     u1180:	
  1432  0356  0016               	moviw fsr1++
  1433  0357  001A               	movwi fsr0++
  1434  0358  0BC5               	decfsz	??_update_display^(0+256),f
  1435  0359  2B56               	goto	u1180
  1436  035A  3180  20D9  3183   	fcall	_display_i2c_data
  1437  035D                     l42:	
  1438  035D  0008               	return
  1439  035E                     __end_of_update_display:	
  1440                           
  1441                           	psect	text3
  1442  00D9                     __ptext3:	
  1443 ;; *************** function _display_i2c_data *****************
  1444 ;; Defined at:
  1445 ;;		line 73 in file "i2c_lcd_display_1519.c"
  1446 ;; Parameters:    Size  Location     Type
  1447 ;;  i2c_package    34   10[BANK1 ] struct .
  1448 ;; Auto vars:     Size  Location     Type
  1449 ;;  i               1   44[BANK1 ] unsigned char 
  1450 ;; Return value:  Size  Location     Type
  1451 ;;                  1    wreg      void 
  1452 ;; Registers used:
  1453 ;;		wreg, fsr0l, fsr0h, fsr1l, fsr1h, status,2, status,0, pclath, cstack
  1454 ;; Tracked objects:
  1455 ;;		On entry : 0/0
  1456 ;;		On exit  : 0/0
  1457 ;;		Unchanged: 0/0
  1458 ;; Data sizes:     COMMON   BANK0   BANK1   BANK2   BANK3   BANK4   BANK5   BANK6   BANK7   BANK8   BANK9  BANK10  BANK1
      +1  BANK12
  1459 ;;      Params:         0       0      34       0       0       0       0       0       0       0       0       0       
      +0       0
  1460 ;;      Locals:         0       0       1       0       0       0       0       0       0       0       0       0       
      +0       0
  1461 ;;      Temps:          0       0       0       3       0       0       0       0       0       0       0       0       
      +0       0
  1462 ;;      Totals:         0       0      35       3       0       0       0       0       0       0       0       0       
      +0       0
  1463 ;;Total ram usage:       38 bytes
  1464 ;; Hardware stack levels used:    1
  1465 ;; Hardware stack levels required when called:    6
  1466 ;; This function calls:
  1467 ;;		___awdiv
  1468 ;;		_lcd_display_set_cursor
  1469 ;;		_lcd_display_write_char
  1470 ;;		_lcd_display_write_string
  1471 ;; This function is called by:
  1472 ;;		_update_display
  1473 ;; This function uses a non-reentrant model
  1474 ;;
  1475                           
  1476                           
  1477                           ;psect for function _display_i2c_data
  1478  00D9                     _display_i2c_data:	
  1479  00D9                     l1493:	
  1480                           ;incstack = 0
  1481                           ; Regs used in _display_i2c_data: [wreg-fsr1h+status,2+status,0+pclath+cstack]
  1482                           
  1483                           
  1484                           ;i2c_lcd_display_1519.c: 73: void display_i2c_data (i2c_package_t i2c_package);i2c_lcd_d
      +                          isplay_1519.c: 74: {;i2c_lcd_display_1519.c: 75:     lcd_display_set_cursor(1, 1);
  1485  00D9  01F8               	clrf	lcd_display_set_cursor@b
  1486  00DA  0AF8               	incf	lcd_display_set_cursor@b,f
  1487  00DB  3001               	movlw	1
  1488  00DC  3181  21A7  3180   	fcall	_lcd_display_set_cursor
  1489  00DF                     l1495:	
  1490                           
  1491                           ;i2c_lcd_display_1519.c: 76:     lcd_display_write_string("-------------------------");
  1492  00DF  3055               	movlw	low (STR_3| (0+32768))
  1493  00E0  00F8               	movwf	lcd_display_write_string@a
  1494  00E1  3082               	movlw	high (STR_3| (0+32768))
  1495  00E2  00F9               	movwf	lcd_display_write_string@a+1
  1496  00E3  3182  22E8  3180   	fcall	_lcd_display_write_string
  1497  00E6                     l1497:	
  1498                           
  1499                           ;i2c_lcd_display_1519.c: 77:     lcd_display_set_cursor(2, 1);
  1500  00E6  01F8               	clrf	lcd_display_set_cursor@b
  1501  00E7  0AF8               	incf	lcd_display_set_cursor@b,f
  1502  00E8  3002               	movlw	2
  1503  00E9  3181  21A7  3180   	fcall	_lcd_display_set_cursor
  1504                           
  1505                           ;i2c_lcd_display_1519.c: 78:     lcd_display_write_string("-------------------------");
  1506  00EC  3055               	movlw	low (STR_3| (0+32768))
  1507  00ED  00F8               	movwf	lcd_display_write_string@a
  1508  00EE  3082               	movlw	high (STR_3| (0+32768))
  1509  00EF  00F9               	movwf	lcd_display_write_string@a+1
  1510  00F0  3182  22E8  3180   	fcall	_lcd_display_write_string
  1511  00F3                     l1499:	
  1512                           
  1513                           ;i2c_lcd_display_1519.c: 80:     for(uint8_t i = 0; i2c_package.data.value[i]!='\0'; i++
      +                          ){
  1514  00F3  0021               	movlb	1	; select bank1
  1515  00F4  01CC               	clrf	display_i2c_data@i^(0+128)
  1516  00F5  2922               	goto	l51
  1517  00F6                     l1501:	
  1518                           
  1519                           ;i2c_lcd_display_1519.c: 81:         lcd_display_set_cursor(1+(i/16), (i%16)+1);
  1520  00F6  084C               	movf	display_i2c_data@i^(0+128),w
  1521  00F7  390F               	andlw	15
  1522  00F8  3E01               	addlw	1
  1523  00F9  0022               	movlb	2	; select bank2
  1524  00FA  00C2               	movwf	??_display_i2c_data^(0+256)
  1525  00FB  0842               	movf	??_display_i2c_data^(0+256),w
  1526  00FC  00F8               	movwf	lcd_display_set_cursor@b
  1527  00FD  3010               	movlw	16
  1528  00FE  00F3               	movwf	___awdiv@divisor
  1529  00FF  3000               	movlw	0
  1530  0100  00F4               	movwf	___awdiv@divisor+1
  1531  0101  0021               	movlb	1	; select bank1
  1532  0102  084C               	movf	display_i2c_data@i^(0+128),w
  1533  0103  0022               	movlb	2	; select bank2
  1534  0104  00C3               	movwf	(??_display_i2c_data+1)^(0+256)
  1535  0105  01C4               	clrf	((??_display_i2c_data+1)^(0+256)+1)
  1536  0106  0843               	movf	(??_display_i2c_data+1)^(0+256),w
  1537  0107  00F5               	movwf	___awdiv@dividend
  1538  0108  0844               	movf	(??_display_i2c_data+2)^(0+256),w
  1539  0109  00F6               	movwf	___awdiv@dividend+1
  1540  010A  3181  2147  3180   	fcall	___awdiv
  1541  010D  0873               	movf	?___awdiv,w
  1542  010E  3E01               	addlw	1
  1543  010F  3181  21A7  3180   	fcall	_lcd_display_set_cursor
  1544  0112                     l1503:	
  1545                           
  1546                           ;i2c_lcd_display_1519.c: 82:         lcd_display_write_char(i2c_package.data.value[i]);
  1547  0112  0021               	movlb	1	; select bank1
  1548  0113  084C               	movf	display_i2c_data@i^(0+128),w
  1549  0114  3E01               	addlw	1
  1550  0115  3EAA               	addlw	(low (display_i2c_data@i2c_package| 0))& (0+255)
  1551  0116  0086               	movwf	6
  1552  0117  0187               	clrf	7
  1553  0118  0801               	movf	1,w
  1554  0119  3182  229C  3180   	fcall	_lcd_display_write_char
  1555  011C                     l1505:	
  1556                           
  1557                           ;i2c_lcd_display_1519.c: 83:     }
  1558  011C  3001               	movlw	1
  1559  011D  0022               	movlb	2	; select bank2
  1560  011E  00C2               	movwf	??_display_i2c_data^(0+256)
  1561  011F  0842               	movf	??_display_i2c_data^(0+256),w
  1562  0120  0021               	movlb	1	; select bank1
  1563  0121  07CC               	addwf	display_i2c_data@i^(0+128),f
  1564  0122                     l51:	
  1565  0122  084C               	movf	display_i2c_data@i^(0+128),w
  1566  0123  3E01               	addlw	1
  1567  0124  3EAA               	addlw	(low (display_i2c_data@i2c_package| 0))& (0+255)
  1568  0125  0086               	movwf	6
  1569  0126  0187               	clrf	7
  1570  0127  0801               	movf	1,w
  1571  0128  1D03               	btfss	3,2
  1572  0129  292B               	goto	u1171
  1573  012A  292C               	goto	u1170
  1574  012B                     u1171:	
  1575  012B  28F6               	goto	l1501
  1576  012C                     u1170:	
  1577  012C                     l1507:	
  1578                           
  1579                           ;i2c_lcd_display_1519.c: 84:     lcd_display_set_cursor(1,16);
  1580  012C  3010               	movlw	16
  1581  012D  0022               	movlb	2	; select bank2
  1582  012E  00C2               	movwf	??_display_i2c_data^(0+256)
  1583  012F  0842               	movf	??_display_i2c_data^(0+256),w
  1584  0130  00F8               	movwf	lcd_display_set_cursor@b
  1585  0131  3001               	movlw	1
  1586  0132  3181  21A7  3180   	fcall	_lcd_display_set_cursor
  1587                           
  1588                           ;i2c_lcd_display_1519.c: 85:     lcd_display_write_char('|');
  1589  0135  307C               	movlw	124
  1590  0136  3182  229C  3180   	fcall	_lcd_display_write_char
  1591                           
  1592                           ;i2c_lcd_display_1519.c: 86:     lcd_display_set_cursor(2,16);
  1593  0139  3010               	movlw	16
  1594  013A  0022               	movlb	2	; select bank2
  1595  013B  00C2               	movwf	??_display_i2c_data^(0+256)
  1596  013C  0842               	movf	??_display_i2c_data^(0+256),w
  1597  013D  00F8               	movwf	lcd_display_set_cursor@b
  1598  013E  3002               	movlw	2
  1599  013F  3181  21A7  3180   	fcall	_lcd_display_set_cursor
  1600                           
  1601                           ;i2c_lcd_display_1519.c: 87:     lcd_display_write_char('|');
  1602  0142  307C               	movlw	124
  1603  0143  3182  229C  3180   	fcall	_lcd_display_write_char
  1604  0146                     l54:	
  1605  0146  0008               	return
  1606  0147                     __end_of_display_i2c_data:	
  1607                           
  1608                           	psect	text4
  1609  02E8                     __ptext4:	
  1610 ;; *************** function _lcd_display_write_string *****************
  1611 ;; Defined at:
  1612 ;;		line 99 in file "lcd_display.c"
  1613 ;; Parameters:    Size  Location     Type
  1614 ;;  a               2    8[COMMON] PTR unsigned char 
  1615 ;;		 -> STR_4(26), STR_3(26), STR_2(17), STR_1(12), 
  1616 ;; Auto vars:     Size  Location     Type
  1617 ;;  i               2    1[BANK1 ] int 
  1618 ;; Return value:  Size  Location     Type
  1619 ;;                  1    wreg      void 
  1620 ;; Registers used:
  1621 ;;		wreg, fsr0l, fsr0h, status,2, status,0, pclath, cstack
  1622 ;; Tracked objects:
  1623 ;;		On entry : 0/0
  1624 ;;		On exit  : 0/0
  1625 ;;		Unchanged: 0/0
  1626 ;; Data sizes:     COMMON   BANK0   BANK1   BANK2   BANK3   BANK4   BANK5   BANK6   BANK7   BANK8   BANK9  BANK10  BANK1
      +1  BANK12
  1627 ;;      Params:         2       0       0       0       0       0       0       0       0       0       0       0       
      +0       0
  1628 ;;      Locals:         0       0       2       0       0       0       0       0       0       0       0       0       
      +0       0
  1629 ;;      Temps:          0       0       1       0       0       0       0       0       0       0       0       0       
      +0       0
  1630 ;;      Totals:         2       0       3       0       0       0       0       0       0       0       0       0       
      +0       0
  1631 ;;Total ram usage:        5 bytes
  1632 ;; Hardware stack levels used:    1
  1633 ;; Hardware stack levels required when called:    5
  1634 ;; This function calls:
  1635 ;;		_lcd_display_write_char
  1636 ;; This function is called by:
  1637 ;;		_main
  1638 ;;		_display_i2c_data
  1639 ;;		_write_to_display
  1640 ;;		_display_i2c_package
  1641 ;; This function uses a non-reentrant model
  1642 ;;
  1643                           
  1644                           
  1645                           ;psect for function _lcd_display_write_string
  1646  02E8                     _lcd_display_write_string:	
  1647  02E8                     l1441:	
  1648                           ;incstack = 0
  1649                           ; Regs used in _lcd_display_write_string: [wreg-fsr0h+status,2+status,0+pclath+cstack]
  1650                           
  1651                           
  1652                           ;lcd_display.c: 99: void lcd_display_write_string(char *a);lcd_display.c: 100: {;lcd_dis
      +                          play.c: 101:  int i;;lcd_display.c: 102:  for(i=0;a[i]!='\0';i++)
  1653  02E8  0021               	movlb	1	; select bank1
  1654  02E9  01A1               	clrf	lcd_display_write_string@i^(0+128)
  1655  02EA  01A2               	clrf	(lcd_display_write_string@i+1)^(0+128)
  1656  02EB  2AFB               	goto	l1447
  1657  02EC                     l1443:	
  1658                           
  1659                           ;lcd_display.c: 103:     lcd_display_write_char(a[i]);
  1660  02EC  0878               	movf	lcd_display_write_string@a,w
  1661  02ED  0721               	addwf	lcd_display_write_string@i^(0+128),w
  1662  02EE  0084               	movwf	4
  1663  02EF  0879               	movf	lcd_display_write_string@a+1,w
  1664  02F0  3D22               	addwfc	(lcd_display_write_string@i+1)^(0+128),w
  1665  02F1  0085               	movwf	5
  1666  02F2  0800               	movf	0,w	;code access
  1667  02F3  3182  229C  3182   	fcall	_lcd_display_write_char
  1668  02F6                     l1445:	
  1669  02F6  3001               	movlw	1
  1670  02F7  0021               	movlb	1	; select bank1
  1671  02F8  07A1               	addwf	lcd_display_write_string@i^(0+128),f
  1672  02F9  3000               	movlw	0
  1673  02FA  3DA2               	addwfc	(lcd_display_write_string@i+1)^(0+128),f
  1674  02FB                     l1447:	
  1675  02FB  0878               	movf	lcd_display_write_string@a,w
  1676  02FC  0721               	addwf	lcd_display_write_string@i^(0+128),w
  1677  02FD  0084               	movwf	4
  1678  02FE  0879               	movf	lcd_display_write_string@a+1,w
  1679  02FF  3D22               	addwfc	(lcd_display_write_string@i+1)^(0+128),w
  1680  0300  0085               	movwf	5
  1681  0301  0012               	moviw fsr0++
  1682  0302  1D03               	btfss	3,2
  1683  0303  2B05               	goto	u1061
  1684  0304  2B06               	goto	u1060
  1685  0305                     u1061:	
  1686  0305  2AEC               	goto	l1443
  1687  0306                     u1060:	
  1688  0306                     l221:	
  1689  0306  0008               	return
  1690  0307                     __end_of_lcd_display_write_string:	
  1691                           
  1692                           	psect	text5
  1693  029C                     __ptext5:	
  1694 ;; *************** function _lcd_display_write_char *****************
  1695 ;; Defined at:
  1696 ;;		line 83 in file "lcd_display.c"
  1697 ;; Parameters:    Size  Location     Type
  1698 ;;  a               1    wreg     unsigned char 
  1699 ;; Auto vars:     Size  Location     Type
  1700 ;;  a               1    7[COMMON] unsigned char 
  1701 ;;  y               1    6[COMMON] unsigned char 
  1702 ;;  temp            1    5[COMMON] unsigned char 
  1703 ;; Return value:  Size  Location     Type
  1704 ;;                  1    wreg      void 
  1705 ;; Registers used:
  1706 ;;		wreg, status,2, status,0, pclath, cstack
  1707 ;; Tracked objects:
  1708 ;;		On entry : 0/0
  1709 ;;		On exit  : 0/0
  1710 ;;		Unchanged: 0/0
  1711 ;; Data sizes:     COMMON   BANK0   BANK1   BANK2   BANK3   BANK4   BANK5   BANK6   BANK7   BANK8   BANK9  BANK10  BANK1
      +1  BANK12
  1712 ;;      Params:         0       0       0       0       0       0       0       0       0       0       0       0       
      +0       0
  1713 ;;      Locals:         3       0       0       0       0       0       0       0       0       0       0       0       
      +0       0
  1714 ;;      Temps:          1       0       0       0       0       0       0       0       0       0       0       0       
      +0       0
  1715 ;;      Totals:         4       0       0       0       0       0       0       0       0       0       0       0       
      +0       0
  1716 ;;Total ram usage:        4 bytes
  1717 ;; Hardware stack levels used:    1
  1718 ;; Hardware stack levels required when called:    4
  1719 ;; This function calls:
  1720 ;;		_lcd_display_port
  1721 ;; This function is called by:
  1722 ;;		_display_i2c_data
  1723 ;;		_lcd_display_write_string
  1724 ;;		_display_i2c_package
  1725 ;; This function uses a non-reentrant model
  1726 ;;
  1727                           
  1728                           
  1729                           ;psect for function _lcd_display_write_char
  1730  029C                     _lcd_display_write_char:	
  1731                           
  1732                           ;incstack = 0
  1733                           ; Regs used in _lcd_display_write_char: [wreg+status,2+status,0+pclath+cstack]
  1734                           ;lcd_display_write_char@a stored from wreg
  1735  029C  00F7               	movwf	lcd_display_write_char@a
  1736  029D                     l1391:	
  1737                           
  1738                           ;lcd_display.c: 83: void lcd_display_write_char(char a);lcd_display.c: 84: {;lcd_display
      +                          .c: 85:     char temp,y;;lcd_display.c: 86:     temp = a&0x0F;
  1739  029D  0877               	movf	lcd_display_write_char@a,w
  1740  029E  390F               	andlw	15
  1741  029F  00F4               	movwf	??_lcd_display_write_char
  1742  02A0  0874               	movf	??_lcd_display_write_char,w
  1743  02A1  00F5               	movwf	lcd_display_write_char@temp
  1744                           
  1745                           ;lcd_display.c: 87:     y = a&0xF0;
  1746  02A2  0877               	movf	lcd_display_write_char@a,w
  1747  02A3  39F0               	andlw	240
  1748  02A4  00F4               	movwf	??_lcd_display_write_char
  1749  02A5  0874               	movf	??_lcd_display_write_char,w
  1750  02A6  00F6               	movwf	lcd_display_write_char@y
  1751  02A7                     l1393:	
  1752                           
  1753                           ;lcd_display.c: 88:     LATB1 = 1;
  1754  02A7  0022               	movlb	2	; select bank2
  1755  02A8  148D               	bsf	13,1	;volatile
  1756  02A9                     l1395:	
  1757                           
  1758                           ;lcd_display.c: 89:     lcd_display_port(y>>4);
  1759  02A9  0876               	movf	lcd_display_write_char@y,w
  1760  02AA  00F4               	movwf	??_lcd_display_write_char
  1761  02AB  3004               	movlw	4
  1762  02AC                     u1015:	
  1763  02AC  36F4               	lsrf	??_lcd_display_write_char,f
  1764  02AD  0B89               	decfsz	9,f
  1765  02AE  2AAC               	goto	u1015
  1766  02AF  0874               	movf	??_lcd_display_write_char,w
  1767  02B0  3182  22C8  3182   	fcall	_lcd_display_port
  1768  02B3                     l1397:	
  1769                           
  1770                           ;lcd_display.c: 90:     LATB0 = 1;
  1771  02B3  0022               	movlb	2	; select bank2
  1772  02B4  140D               	bsf	13,0	;volatile
  1773  02B5                     l1399:	
  1774                           
  1775                           ;lcd_display.c: 91:     _delay((unsigned long)((40)*(8000000/4000000.0)));
  1776  02B5  301A               	movlw	26
  1777  02B6                     u1207:	
  1778  02B6  0B89               	decfsz	9,f
  1779  02B7  2AB6               	goto	u1207
  1780  02B8  3200               	nop2
  1781  02B9                     l1401:	
  1782                           
  1783                           ;lcd_display.c: 92:     LATB0 = 0;
  1784  02B9  0022               	movlb	2	; select bank2
  1785  02BA  100D               	bcf	13,0	;volatile
  1786  02BB                     l1403:	
  1787                           
  1788                           ;lcd_display.c: 93:     lcd_display_port(temp);
  1789  02BB  0875               	movf	lcd_display_write_char@temp,w
  1790  02BC  3182  22C8  3182   	fcall	_lcd_display_port
  1791  02BF                     l1405:	
  1792                           
  1793                           ;lcd_display.c: 94:     LATB0 = 1;
  1794  02BF  0022               	movlb	2	; select bank2
  1795  02C0  140D               	bsf	13,0	;volatile
  1796  02C1                     l1407:	
  1797                           
  1798                           ;lcd_display.c: 95:     _delay((unsigned long)((40)*(8000000/4000000.0)));
  1799  02C1  301A               	movlw	26
  1800  02C2                     u1217:	
  1801  02C2  0B89               	decfsz	9,f
  1802  02C3  2AC2               	goto	u1217
  1803  02C4  3200               	nop2
  1804  02C5                     l1409:	
  1805                           
  1806                           ;lcd_display.c: 96:     LATB0 = 0;
  1807  02C5  0022               	movlb	2	; select bank2
  1808  02C6  100D               	bcf	13,0	;volatile
  1809  02C7                     l215:	
  1810  02C7  0008               	return
  1811  02C8                     __end_of_lcd_display_write_char:	
  1812                           
  1813                           	psect	text6
  1814  01A7                     __ptext6:	
  1815 ;; *************** function _lcd_display_set_cursor *****************
  1816 ;; Defined at:
  1817 ;;		line 43 in file "lcd_display.c"
  1818 ;; Parameters:    Size  Location     Type
  1819 ;;  a               1    wreg     unsigned char 
  1820 ;;  b               1    8[COMMON] unsigned char 
  1821 ;; Auto vars:     Size  Location     Type
  1822 ;;  a               1    6[BANK1 ] unsigned char 
  1823 ;;  temp            1    9[BANK1 ] unsigned char 
  1824 ;;  y               1    8[BANK1 ] unsigned char 
  1825 ;;  z               1    7[BANK1 ] unsigned char 
  1826 ;; Return value:  Size  Location     Type
  1827 ;;                  1    wreg      void 
  1828 ;; Registers used:
  1829 ;;		wreg, status,2, status,0, pclath, cstack
  1830 ;; Tracked objects:
  1831 ;;		On entry : 0/0
  1832 ;;		On exit  : 0/0
  1833 ;;		Unchanged: 0/0
  1834 ;; Data sizes:     COMMON   BANK0   BANK1   BANK2   BANK3   BANK4   BANK5   BANK6   BANK7   BANK8   BANK9  BANK10  BANK1
      +1  BANK12
  1835 ;;      Params:         1       0       0       0       0       0       0       0       0       0       0       0       
      +0       0
  1836 ;;      Locals:         0       0       4       0       0       0       0       0       0       0       0       0       
      +0       0
  1837 ;;      Temps:          0       0       2       0       0       0       0       0       0       0       0       0       
      +0       0
  1838 ;;      Totals:         1       0       6       0       0       0       0       0       0       0       0       0       
      +0       0
  1839 ;;Total ram usage:        7 bytes
  1840 ;; Hardware stack levels used:    1
  1841 ;; Hardware stack levels required when called:    5
  1842 ;; This function calls:
  1843 ;;		_lcd_display_cmd
  1844 ;; This function is called by:
  1845 ;;		_main
  1846 ;;		_display_i2c_data
  1847 ;;		_write_to_display
  1848 ;;		_display_i2c_package
  1849 ;; This function uses a non-reentrant model
  1850 ;;
  1851                           
  1852                           
  1853                           ;psect for function _lcd_display_set_cursor
  1854  01A7                     _lcd_display_set_cursor:	
  1855                           
  1856                           ;incstack = 0
  1857                           ; Regs used in _lcd_display_set_cursor: [wreg+status,2+status,0+pclath+cstack]
  1858                           ;lcd_display_set_cursor@a stored from wreg
  1859  01A7  0021               	movlb	1	; select bank1
  1860  01A8  00A6               	movwf	lcd_display_set_cursor@a^(0+128)
  1861  01A9                     l1421:	
  1862                           
  1863                           ;lcd_display.c: 43: void lcd_display_set_cursor(char a, char b);lcd_display.c: 44: {;lcd
      +                          _display.c: 45:  char temp,z,y;;lcd_display.c: 46:  if(a == 1)
  1864  01A9  0326               	decf	lcd_display_set_cursor@a^(0+128),w
  1865  01AA  1D03               	btfss	3,2
  1866  01AB  29AD               	goto	u1021
  1867  01AC  29AE               	goto	u1020
  1868  01AD                     u1021:	
  1869  01AD  29CC               	goto	l1431
  1870  01AE                     u1020:	
  1871  01AE                     l1423:	
  1872                           
  1873                           ;lcd_display.c: 47:  {;lcd_display.c: 48:    temp = 0x80 + b - 1;
  1874  01AE  0878               	movf	lcd_display_set_cursor@b,w
  1875  01AF  3E7F               	addlw	127
  1876  01B0  00A4               	movwf	??_lcd_display_set_cursor^(0+128)
  1877  01B1  0824               	movf	??_lcd_display_set_cursor^(0+128),w
  1878  01B2  00A9               	movwf	lcd_display_set_cursor@temp^(0+128)
  1879                           
  1880                           ;lcd_display.c: 49:   z = temp>>4;
  1881  01B3  0829               	movf	lcd_display_set_cursor@temp^(0+128),w
  1882  01B4  00A4               	movwf	??_lcd_display_set_cursor^(0+128)
  1883  01B5  3004               	movlw	4
  1884  01B6                     u1035:	
  1885  01B6  36A4               	lsrf	??_lcd_display_set_cursor^(0+128),f
  1886  01B7  0B89               	decfsz	9,f
  1887  01B8  29B6               	goto	u1035
  1888  01B9  0824               	movf	??_lcd_display_set_cursor^(0+128),w
  1889  01BA  00A5               	movwf	(??_lcd_display_set_cursor+1)^(0+128)
  1890  01BB  0825               	movf	(??_lcd_display_set_cursor+1)^(0+128),w
  1891  01BC  00A7               	movwf	lcd_display_set_cursor@z^(0+128)
  1892  01BD                     l1425:	
  1893                           
  1894                           ;lcd_display.c: 50:   y = temp & 0x0F;
  1895  01BD  0829               	movf	lcd_display_set_cursor@temp^(0+128),w
  1896  01BE  390F               	andlw	15
  1897  01BF  00A4               	movwf	??_lcd_display_set_cursor^(0+128)
  1898  01C0  0824               	movf	??_lcd_display_set_cursor^(0+128),w
  1899  01C1  00A8               	movwf	lcd_display_set_cursor@y^(0+128)
  1900  01C2                     l1427:	
  1901                           
  1902                           ;lcd_display.c: 51:   lcd_display_cmd(z);
  1903  01C2  0827               	movf	lcd_display_set_cursor@z^(0+128),w
  1904  01C3  3183  2323  3181   	fcall	_lcd_display_cmd
  1905  01C6                     l1429:	
  1906                           
  1907                           ;lcd_display.c: 52:   lcd_display_cmd(y);
  1908  01C6  0021               	movlb	1	; select bank1
  1909  01C7  0828               	movf	lcd_display_set_cursor@y^(0+128),w
  1910  01C8  3183  2323  3181   	fcall	_lcd_display_cmd
  1911                           
  1912                           ;lcd_display.c: 53:  }
  1913  01CB  29EF               	goto	l209
  1914  01CC                     l1431:	
  1915  01CC  3002               	movlw	2
  1916  01CD  0626               	xorwf	lcd_display_set_cursor@a^(0+128),w
  1917  01CE  1D03               	btfss	3,2
  1918  01CF  29D1               	goto	u1041
  1919  01D0  29D2               	goto	u1040
  1920  01D1                     u1041:	
  1921  01D1  29EF               	goto	l209
  1922  01D2                     u1040:	
  1923  01D2                     l1433:	
  1924                           
  1925                           ;lcd_display.c: 55:  {;lcd_display.c: 56:   temp = 0xC0 + b - 1;
  1926  01D2  0878               	movf	lcd_display_set_cursor@b,w
  1927  01D3  3EBF               	addlw	191
  1928  01D4  00A4               	movwf	??_lcd_display_set_cursor^(0+128)
  1929  01D5  0824               	movf	??_lcd_display_set_cursor^(0+128),w
  1930  01D6  00A9               	movwf	lcd_display_set_cursor@temp^(0+128)
  1931                           
  1932                           ;lcd_display.c: 57:   z = temp>>4;
  1933  01D7  0829               	movf	lcd_display_set_cursor@temp^(0+128),w
  1934  01D8  00A4               	movwf	??_lcd_display_set_cursor^(0+128)
  1935  01D9  3004               	movlw	4
  1936  01DA                     u1055:	
  1937  01DA  36A4               	lsrf	??_lcd_display_set_cursor^(0+128),f
  1938  01DB  0B89               	decfsz	9,f
  1939  01DC  29DA               	goto	u1055
  1940  01DD  0824               	movf	??_lcd_display_set_cursor^(0+128),w
  1941  01DE  00A5               	movwf	(??_lcd_display_set_cursor+1)^(0+128)
  1942  01DF  0825               	movf	(??_lcd_display_set_cursor+1)^(0+128),w
  1943  01E0  00A7               	movwf	lcd_display_set_cursor@z^(0+128)
  1944  01E1                     l1435:	
  1945                           
  1946                           ;lcd_display.c: 58:   y = temp & 0x0F;
  1947  01E1  0829               	movf	lcd_display_set_cursor@temp^(0+128),w
  1948  01E2  390F               	andlw	15
  1949  01E3  00A4               	movwf	??_lcd_display_set_cursor^(0+128)
  1950  01E4  0824               	movf	??_lcd_display_set_cursor^(0+128),w
  1951  01E5  00A8               	movwf	lcd_display_set_cursor@y^(0+128)
  1952  01E6                     l1437:	
  1953                           
  1954                           ;lcd_display.c: 59:   lcd_display_cmd(z);
  1955  01E6  0827               	movf	lcd_display_set_cursor@z^(0+128),w
  1956  01E7  3183  2323  3181   	fcall	_lcd_display_cmd
  1957  01EA                     l1439:	
  1958                           
  1959                           ;lcd_display.c: 60:   lcd_display_cmd(y);
  1960  01EA  0021               	movlb	1	; select bank1
  1961  01EB  0828               	movf	lcd_display_set_cursor@y^(0+128),w
  1962  01EC  3183  2323  3181   	fcall	_lcd_display_cmd
  1963  01EF                     l209:	
  1964  01EF  0008               	return
  1965  01F0                     __end_of_lcd_display_set_cursor:	
  1966                           
  1967                           	psect	text7
  1968  0147                     __ptext7:	
  1969 ;; *************** function ___awdiv *****************
  1970 ;; Defined at:
  1971 ;;		line 5 in file "C:\Program Files (x86)\Microchip\xc8\v2.10\pic\sources\c99\common\awdiv.c"
  1972 ;; Parameters:    Size  Location     Type
  1973 ;;  divisor         2    3[COMMON] int 
  1974 ;;  dividend        2    5[COMMON] int 
  1975 ;; Auto vars:     Size  Location     Type
  1976 ;;  quotient        2    2[BANK1 ] int 
  1977 ;;  sign            1    1[BANK1 ] unsigned char 
  1978 ;;  counter         1    0[BANK1 ] unsigned char 
  1979 ;; Return value:  Size  Location     Type
  1980 ;;                  2    3[COMMON] int 
  1981 ;; Registers used:
  1982 ;;		wreg, status,2, status,0
  1983 ;; Tracked objects:
  1984 ;;		On entry : 0/0
  1985 ;;		On exit  : 0/0
  1986 ;;		Unchanged: 0/0
  1987 ;; Data sizes:     COMMON   BANK0   BANK1   BANK2   BANK3   BANK4   BANK5   BANK6   BANK7   BANK8   BANK9  BANK10  BANK1
      +1  BANK12
  1988 ;;      Params:         4       0       0       0       0       0       0       0       0       0       0       0       
      +0       0
  1989 ;;      Locals:         0       0       4       0       0       0       0       0       0       0       0       0       
      +0       0
  1990 ;;      Temps:          1       0       0       0       0       0       0       0       0       0       0       0       
      +0       0
  1991 ;;      Totals:         5       0       4       0       0       0       0       0       0       0       0       0       
      +0       0
  1992 ;;Total ram usage:        9 bytes
  1993 ;; Hardware stack levels used:    1
  1994 ;; Hardware stack levels required when called:    3
  1995 ;; This function calls:
  1996 ;;		Nothing
  1997 ;; This function is called by:
  1998 ;;		_display_i2c_data
  1999 ;; This function uses a non-reentrant model
  2000 ;;
  2001                           
  2002                           
  2003                           ;psect for function ___awdiv
  2004  0147                     ___awdiv:	
  2005  0147                     l1449:	
  2006                           ;incstack = 0
  2007                           ; Regs used in ___awdiv: [wreg+status,2+status,0]
  2008                           
  2009  0147  0021               	movlb	1	; select bank1
  2010  0148  01A1               	clrf	___awdiv@sign^(0+128)
  2011  0149                     l1451:	
  2012  0149  1FF4               	btfss	___awdiv@divisor+1,7
  2013  014A  294C               	goto	u1071
  2014  014B  294D               	goto	u1070
  2015  014C                     u1071:	
  2016  014C  2954               	goto	l1457
  2017  014D                     u1070:	
  2018  014D                     l1453:	
  2019  014D  09F3               	comf	___awdiv@divisor,f
  2020  014E  09F4               	comf	___awdiv@divisor+1,f
  2021  014F  0AF3               	incf	___awdiv@divisor,f
  2022  0150  1903               	skipnz
  2023  0151  0AF4               	incf	___awdiv@divisor+1,f
  2024  0152                     l1455:	
  2025  0152  01A1               	clrf	___awdiv@sign^(0+128)
  2026  0153  0AA1               	incf	___awdiv@sign^(0+128),f
  2027  0154                     l1457:	
  2028  0154  1FF6               	btfss	___awdiv@dividend+1,7
  2029  0155  2957               	goto	u1081
  2030  0156  2958               	goto	u1080
  2031  0157                     u1081:	
  2032  0157  2961               	goto	l1463
  2033  0158                     u1080:	
  2034  0158                     l1459:	
  2035  0158  09F5               	comf	___awdiv@dividend,f
  2036  0159  09F6               	comf	___awdiv@dividend+1,f
  2037  015A  0AF5               	incf	___awdiv@dividend,f
  2038  015B  1903               	skipnz
  2039  015C  0AF6               	incf	___awdiv@dividend+1,f
  2040  015D                     l1461:	
  2041  015D  3001               	movlw	1
  2042  015E  00F7               	movwf	??___awdiv
  2043  015F  0877               	movf	??___awdiv,w
  2044  0160  06A1               	xorwf	___awdiv@sign^(0+128),f
  2045  0161                     l1463:	
  2046  0161  01A2               	clrf	___awdiv@quotient^(0+128)
  2047  0162  01A3               	clrf	(___awdiv@quotient+1)^(0+128)
  2048  0163                     l1465:	
  2049  0163  0873               	movf	___awdiv@divisor,w
  2050  0164  0474               	iorwf	___awdiv@divisor+1,w
  2051  0165  1903               	btfsc	3,2
  2052  0166  2968               	goto	u1091
  2053  0167  2969               	goto	u1090
  2054  0168                     u1091:	
  2055  0168  2998               	goto	l1485
  2056  0169                     u1090:	
  2057  0169                     l1467:	
  2058  0169  01A0               	clrf	___awdiv@counter^(0+128)
  2059  016A  0AA0               	incf	___awdiv@counter^(0+128),f
  2060  016B  2975               	goto	l1473
  2061  016C                     l1469:	
  2062  016C  3001               	movlw	1
  2063  016D                     u1105:	
  2064  016D  35F3               	lslf	___awdiv@divisor,f
  2065  016E  0DF4               	rlf	___awdiv@divisor+1,f
  2066  016F  0B89               	decfsz	9,f
  2067  0170  296D               	goto	u1105
  2068  0171                     l1471:	
  2069  0171  3001               	movlw	1
  2070  0172  00F7               	movwf	??___awdiv
  2071  0173  0877               	movf	??___awdiv,w
  2072  0174  07A0               	addwf	___awdiv@counter^(0+128),f
  2073  0175                     l1473:	
  2074  0175  1FF4               	btfss	___awdiv@divisor+1,7
  2075  0176  2978               	goto	u1111
  2076  0177  2979               	goto	u1110
  2077  0178                     u1111:	
  2078  0178  296C               	goto	l1469
  2079  0179                     u1110:	
  2080  0179                     l1475:	
  2081  0179  3001               	movlw	1
  2082  017A                     u1125:	
  2083  017A  35A2               	lslf	___awdiv@quotient^(0+128),f
  2084  017B  0DA3               	rlf	(___awdiv@quotient+1)^(0+128),f
  2085  017C  0B89               	decfsz	9,f
  2086  017D  297A               	goto	u1125
  2087  017E  0874               	movf	___awdiv@divisor+1,w
  2088  017F  0276               	subwf	___awdiv@dividend+1,w
  2089  0180  1D03               	skipz
  2090  0181  2984               	goto	u1135
  2091  0182  0873               	movf	___awdiv@divisor,w
  2092  0183  0275               	subwf	___awdiv@dividend,w
  2093  0184                     u1135:	
  2094  0184  1C03               	skipc
  2095  0185  2987               	goto	u1131
  2096  0186  2988               	goto	u1130
  2097  0187                     u1131:	
  2098  0187  298D               	goto	l1481
  2099  0188                     u1130:	
  2100  0188                     l1477:	
  2101  0188  0873               	movf	___awdiv@divisor,w
  2102  0189  02F5               	subwf	___awdiv@dividend,f
  2103  018A  0874               	movf	___awdiv@divisor+1,w
  2104  018B  3BF6               	subwfb	___awdiv@dividend+1,f
  2105  018C                     l1479:	
  2106  018C  1422               	bsf	___awdiv@quotient^(0+128),0
  2107  018D                     l1481:	
  2108  018D  3001               	movlw	1
  2109  018E                     u1145:	
  2110  018E  36F4               	lsrf	___awdiv@divisor+1,f
  2111  018F  0CF3               	rrf	___awdiv@divisor,f
  2112  0190  0B89               	decfsz	9,f
  2113  0191  298E               	goto	u1145
  2114  0192                     l1483:	
  2115  0192  3001               	movlw	1
  2116  0193  02A0               	subwf	___awdiv@counter^(0+128),f
  2117  0194  1D03               	btfss	3,2
  2118  0195  2997               	goto	u1151
  2119  0196  2998               	goto	u1150
  2120  0197                     u1151:	
  2121  0197  2979               	goto	l1475
  2122  0198                     u1150:	
  2123  0198                     l1485:	
  2124  0198  0821               	movf	___awdiv@sign^(0+128),w
  2125  0199  1903               	btfsc	3,2
  2126  019A  299C               	goto	u1161
  2127  019B  299D               	goto	u1160
  2128  019C                     u1161:	
  2129  019C  29A2               	goto	l1489
  2130  019D                     u1160:	
  2131  019D                     l1487:	
  2132  019D  09A2               	comf	___awdiv@quotient^(0+128),f
  2133  019E  09A3               	comf	(___awdiv@quotient+1)^(0+128),f
  2134  019F  0AA2               	incf	___awdiv@quotient^(0+128),f
  2135  01A0  1903               	skipnz
  2136  01A1  0AA3               	incf	(___awdiv@quotient+1)^(0+128),f
  2137  01A2                     l1489:	
  2138  01A2  0823               	movf	(___awdiv@quotient+1)^(0+128),w
  2139  01A3  00F4               	movwf	?___awdiv+1
  2140  01A4  0822               	movf	___awdiv@quotient^(0+128),w
  2141  01A5  00F3               	movwf	?___awdiv
  2142  01A6                     l524:	
  2143  01A6  0008               	return
  2144  01A7                     __end_of___awdiv:	
  2145                           
  2146                           	psect	text8
  2147  01F0                     __ptext8:	
  2148 ;; *************** function _lcd_display_init *****************
  2149 ;; Defined at:
  2150 ;;		line 64 in file "lcd_display.c"
  2151 ;; Parameters:    Size  Location     Type
  2152 ;;		None
  2153 ;; Auto vars:     Size  Location     Type
  2154 ;;		None
  2155 ;; Return value:  Size  Location     Type
  2156 ;;                  1    wreg      void 
  2157 ;; Registers used:
  2158 ;;		wreg, status,2, status,0, pclath, cstack
  2159 ;; Tracked objects:
  2160 ;;		On entry : 0/0
  2161 ;;		On exit  : 0/0
  2162 ;;		Unchanged: 0/0
  2163 ;; Data sizes:     COMMON   BANK0   BANK1   BANK2   BANK3   BANK4   BANK5   BANK6   BANK7   BANK8   BANK9  BANK10  BANK1
      +1  BANK12
  2164 ;;      Params:         0       0       0       0       0       0       0       0       0       0       0       0       
      +0       0
  2165 ;;      Locals:         0       0       0       0       0       0       0       0       0       0       0       0       
      +0       0
  2166 ;;      Temps:          1       0       0       0       0       0       0       0       0       0       0       0       
      +0       0
  2167 ;;      Totals:         1       0       0       0       0       0       0       0       0       0       0       0       
      +0       0
  2168 ;;Total ram usage:        1 bytes
  2169 ;; Hardware stack levels used:    1
  2170 ;; Hardware stack levels required when called:    5
  2171 ;; This function calls:
  2172 ;;		_lcd_display_cmd
  2173 ;;		_lcd_display_port
  2174 ;; This function is called by:
  2175 ;;		_main
  2176 ;; This function uses a non-reentrant model
  2177 ;;
  2178                           
  2179                           
  2180                           ;psect for function _lcd_display_init
  2181  01F0                     _lcd_display_init:	
  2182  01F0                     l1511:	
  2183                           ;incstack = 0
  2184                           ; Regs used in _lcd_display_init: [wreg+status,2+status,0+pclath+cstack]
  2185                           
  2186                           
  2187                           ;lcd_display.c: 66:     lcd_display_port(0x00);
  2188  01F0  3000               	movlw	0
  2189  01F1  3182  22C8  3181   	fcall	_lcd_display_port
  2190  01F4                     l1513:	
  2191                           
  2192                           ;lcd_display.c: 67:     _delay((unsigned long)((20)*(8000000/4000.0)));
  2193  01F4  3034               	movlw	52
  2194  01F5  00F6               	movwf	??_lcd_display_init
  2195  01F6  30F2               	movlw	242
  2196  01F7                     u1227:	
  2197  01F7  0B89               	decfsz	9,f
  2198  01F8  29F7               	goto	u1227
  2199  01F9  0BF6               	decfsz	??_lcd_display_init,f
  2200  01FA  29F7               	goto	u1227
  2201  01FB                     l1515:	
  2202                           
  2203                           ;lcd_display.c: 68:     lcd_display_cmd(0x03);
  2204  01FB  3003               	movlw	3
  2205  01FC  3183  2323  3181   	fcall	_lcd_display_cmd
  2206                           
  2207                           ;lcd_display.c: 69:     _delay((unsigned long)((5)*(8000000/4000.0)));
  2208  01FF  300D               	movlw	13
  2209  0200  00F6               	movwf	??_lcd_display_init
  2210  0201  30FC               	movlw	252
  2211  0202                     u1237:	
  2212  0202  0B89               	decfsz	9,f
  2213  0203  2A02               	goto	u1237
  2214  0204  0BF6               	decfsz	??_lcd_display_init,f
  2215  0205  2A02               	goto	u1237
  2216  0206                     l1517:	
  2217                           
  2218                           ;lcd_display.c: 70:     lcd_display_cmd(0x03);
  2219  0206  3003               	movlw	3
  2220  0207  3183  2323  3181   	fcall	_lcd_display_cmd
  2221  020A                     l1519:	
  2222                           
  2223                           ;lcd_display.c: 71:     _delay((unsigned long)((11)*(8000000/4000.0)));
  2224  020A  301D               	movlw	29
  2225  020B  00F6               	movwf	??_lcd_display_init
  2226  020C  3091               	movlw	145
  2227  020D                     u1247:	
  2228  020D  0B89               	decfsz	9,f
  2229  020E  2A0D               	goto	u1247
  2230  020F  0BF6               	decfsz	??_lcd_display_init,f
  2231  0210  2A0D               	goto	u1247
  2232  0211  0000               	nop
  2233                           
  2234                           ;lcd_display.c: 72:     lcd_display_cmd(0x03);
  2235  0212  3003               	movlw	3
  2236  0213  3183  2323  3181   	fcall	_lcd_display_cmd
  2237                           
  2238                           ;lcd_display.c: 74:     lcd_display_cmd(0x02);
  2239  0216  3002               	movlw	2
  2240  0217  3183  2323  3181   	fcall	_lcd_display_cmd
  2241                           
  2242                           ;lcd_display.c: 75:     lcd_display_cmd(0x02);
  2243  021A  3002               	movlw	2
  2244  021B  3183  2323  3181   	fcall	_lcd_display_cmd
  2245                           
  2246                           ;lcd_display.c: 76:     lcd_display_cmd(0x08);
  2247  021E  3008               	movlw	8
  2248  021F  3183  2323  3181   	fcall	_lcd_display_cmd
  2249                           
  2250                           ;lcd_display.c: 77:     lcd_display_cmd(0x00);
  2251  0222  3000               	movlw	0
  2252  0223  3183  2323  3181   	fcall	_lcd_display_cmd
  2253                           
  2254                           ;lcd_display.c: 78:     lcd_display_cmd(0x0C);
  2255  0226  300C               	movlw	12
  2256  0227  3183  2323  3181   	fcall	_lcd_display_cmd
  2257                           
  2258                           ;lcd_display.c: 79:     lcd_display_cmd(0x00);
  2259  022A  3000               	movlw	0
  2260  022B  3183  2323  3181   	fcall	_lcd_display_cmd
  2261                           
  2262                           ;lcd_display.c: 80:     lcd_display_cmd(0x06);
  2263  022E  3006               	movlw	6
  2264  022F  3183  2323  3181   	fcall	_lcd_display_cmd
  2265  0232                     l212:	
  2266  0232  0008               	return
  2267  0233                     __end_of_lcd_display_init:	
  2268                           
  2269                           	psect	text9
  2270  03AE                     __ptext9:	
  2271 ;; *************** function _lcd_display_clear *****************
  2272 ;; Defined at:
  2273 ;;		line 37 in file "lcd_display.c"
  2274 ;; Parameters:    Size  Location     Type
  2275 ;;		None
  2276 ;; Auto vars:     Size  Location     Type
  2277 ;;		None
  2278 ;; Return value:  Size  Location     Type
  2279 ;;                  1    wreg      void 
  2280 ;; Registers used:
  2281 ;;		wreg, status,2, status,0, pclath, cstack
  2282 ;; Tracked objects:
  2283 ;;		On entry : 0/0
  2284 ;;		On exit  : 0/0
  2285 ;;		Unchanged: 0/0
  2286 ;; Data sizes:     COMMON   BANK0   BANK1   BANK2   BANK3   BANK4   BANK5   BANK6   BANK7   BANK8   BANK9  BANK10  BANK1
      +1  BANK12
  2287 ;;      Params:         0       0       0       0       0       0       0       0       0       0       0       0       
      +0       0
  2288 ;;      Locals:         0       0       0       0       0       0       0       0       0       0       0       0       
      +0       0
  2289 ;;      Temps:          0       0       0       0       0       0       0       0       0       0       0       0       
      +0       0
  2290 ;;      Totals:         0       0       0       0       0       0       0       0       0       0       0       0       
      +0       0
  2291 ;;Total ram usage:        0 bytes
  2292 ;; Hardware stack levels used:    1
  2293 ;; Hardware stack levels required when called:    5
  2294 ;; This function calls:
  2295 ;;		_lcd_display_cmd
  2296 ;; This function is called by:
  2297 ;;		_main
  2298 ;; This function uses a non-reentrant model
  2299 ;;
  2300                           
  2301                           
  2302                           ;psect for function _lcd_display_clear
  2303  03AE                     _lcd_display_clear:	
  2304  03AE                     l1521:	
  2305                           ;incstack = 0
  2306                           ; Regs used in _lcd_display_clear: [wreg+status,2+status,0+pclath+cstack]
  2307                           
  2308                           
  2309                           ;lcd_display.c: 39:  lcd_display_cmd(0);
  2310  03AE  3000               	movlw	0
  2311  03AF  3183  2323  3183   	fcall	_lcd_display_cmd
  2312                           
  2313                           ;lcd_display.c: 40:  lcd_display_cmd(1);
  2314  03B2  3001               	movlw	1
  2315  03B3  3183  2323  3183   	fcall	_lcd_display_cmd
  2316  03B6                     l203:	
  2317  03B6  0008               	return
  2318  03B7                     __end_of_lcd_display_clear:	
  2319                           
  2320                           	psect	text10
  2321  0323                     __ptext10:	
  2322 ;; *************** function _lcd_display_cmd *****************
  2323 ;; Defined at:
  2324 ;;		line 28 in file "lcd_display.c"
  2325 ;; Parameters:    Size  Location     Type
  2326 ;;  a               1    wreg     unsigned char 
  2327 ;; Auto vars:     Size  Location     Type
  2328 ;;  a               1    5[COMMON] unsigned char 
  2329 ;; Return value:  Size  Location     Type
  2330 ;;                  1    wreg      void 
  2331 ;; Registers used:
  2332 ;;		wreg, status,2, status,0, pclath, cstack
  2333 ;; Tracked objects:
  2334 ;;		On entry : 0/0
  2335 ;;		On exit  : 0/0
  2336 ;;		Unchanged: 0/0
  2337 ;; Data sizes:     COMMON   BANK0   BANK1   BANK2   BANK3   BANK4   BANK5   BANK6   BANK7   BANK8   BANK9  BANK10  BANK1
      +1  BANK12
  2338 ;;      Params:         0       0       0       0       0       0       0       0       0       0       0       0       
      +0       0
  2339 ;;      Locals:         1       0       0       0       0       0       0       0       0       0       0       0       
      +0       0
  2340 ;;      Temps:          1       0       0       0       0       0       0       0       0       0       0       0       
      +0       0
  2341 ;;      Totals:         2       0       0       0       0       0       0       0       0       0       0       0       
      +0       0
  2342 ;;Total ram usage:        2 bytes
  2343 ;; Hardware stack levels used:    1
  2344 ;; Hardware stack levels required when called:    4
  2345 ;; This function calls:
  2346 ;;		_lcd_display_port
  2347 ;; This function is called by:
  2348 ;;		_lcd_display_clear
  2349 ;;		_lcd_display_set_cursor
  2350 ;;		_lcd_display_init
  2351 ;;		_lcd_display_shift_right
  2352 ;;		_lcd_display_shift_left
  2353 ;; This function uses a non-reentrant model
  2354 ;;
  2355                           
  2356                           
  2357                           ;psect for function _lcd_display_cmd
  2358  0323                     _lcd_display_cmd:	
  2359                           
  2360                           ;incstack = 0
  2361                           ; Regs used in _lcd_display_cmd: [wreg+status,2+status,0+pclath+cstack]
  2362                           ;lcd_display_cmd@a stored from wreg
  2363  0323  00F5               	movwf	lcd_display_cmd@a
  2364  0324                     l1411:	
  2365                           
  2366                           ;lcd_display.c: 28: void lcd_display_cmd(char a);lcd_display.c: 29: {;lcd_display.c: 30:
      +                               LATB1 = 0;
  2367  0324  0022               	movlb	2	; select bank2
  2368  0325  108D               	bcf	13,1	;volatile
  2369  0326                     l1413:	
  2370                           
  2371                           ;lcd_display.c: 31:  lcd_display_port(a);
  2372  0326  0875               	movf	lcd_display_cmd@a,w
  2373  0327  3182  22C8  3183   	fcall	_lcd_display_port
  2374  032A                     l1415:	
  2375                           
  2376                           ;lcd_display.c: 32:  LATB0 = 1;
  2377  032A  0022               	movlb	2	; select bank2
  2378  032B  140D               	bsf	13,0	;volatile
  2379  032C                     l1417:	
  2380                           
  2381                           ;lcd_display.c: 33:     _delay((unsigned long)((4)*(8000000/4000.0)));
  2382  032C  300B               	movlw	11
  2383  032D  00F4               	movwf	??_lcd_display_cmd
  2384  032E  3062               	movlw	98
  2385  032F                     u1257:	
  2386  032F  0B89               	decfsz	9,f
  2387  0330  2B2F               	goto	u1257
  2388  0331  0BF4               	decfsz	??_lcd_display_cmd,f
  2389  0332  2B2F               	goto	u1257
  2390  0333  3200               	nop2
  2391  0334                     l1419:	
  2392                           
  2393                           ;lcd_display.c: 34:     LATB0 = 0;
  2394  0334  0022               	movlb	2	; select bank2
  2395  0335  100D               	bcf	13,0	;volatile
  2396  0336                     l200:	
  2397  0336  0008               	return
  2398  0337                     __end_of_lcd_display_cmd:	
  2399                           
  2400                           	psect	text11
  2401  02C8                     __ptext11:	
  2402 ;; *************** function _lcd_display_port *****************
  2403 ;; Defined at:
  2404 ;;		line 5 in file "lcd_display.c"
  2405 ;; Parameters:    Size  Location     Type
  2406 ;;  a               1    wreg     unsigned char 
  2407 ;; Auto vars:     Size  Location     Type
  2408 ;;  a               1    3[COMMON] unsigned char 
  2409 ;; Return value:  Size  Location     Type
  2410 ;;                  1    wreg      void 
  2411 ;; Registers used:
  2412 ;;		wreg
  2413 ;; Tracked objects:
  2414 ;;		On entry : 0/0
  2415 ;;		On exit  : 0/0
  2416 ;;		Unchanged: 0/0
  2417 ;; Data sizes:     COMMON   BANK0   BANK1   BANK2   BANK3   BANK4   BANK5   BANK6   BANK7   BANK8   BANK9  BANK10  BANK1
      +1  BANK12
  2418 ;;      Params:         0       0       0       0       0       0       0       0       0       0       0       0       
      +0       0
  2419 ;;      Locals:         1       0       0       0       0       0       0       0       0       0       0       0       
      +0       0
  2420 ;;      Temps:          0       0       0       0       0       0       0       0       0       0       0       0       
      +0       0
  2421 ;;      Totals:         1       0       0       0       0       0       0       0       0       0       0       0       
      +0       0
  2422 ;;Total ram usage:        1 bytes
  2423 ;; Hardware stack levels used:    1
  2424 ;; Hardware stack levels required when called:    3
  2425 ;; This function calls:
  2426 ;;		Nothing
  2427 ;; This function is called by:
  2428 ;;		_lcd_display_cmd
  2429 ;;		_lcd_display_init
  2430 ;;		_lcd_display_write_char
  2431 ;; This function uses a non-reentrant model
  2432 ;;
  2433                           
  2434                           
  2435                           ;psect for function _lcd_display_port
  2436  02C8                     _lcd_display_port:	
  2437                           
  2438                           ;incstack = 0
  2439                           ; Regs used in _lcd_display_port: [wreg]
  2440                           ;lcd_display_port@a stored from wreg
  2441  02C8  00F3               	movwf	lcd_display_port@a
  2442  02C9                     l1375:	
  2443                           
  2444                           ;lcd_display.c: 5: void lcd_display_port(char a);lcd_display.c: 6: {;lcd_display.c: 7:  
      +                          if(a & 1)
  2445  02C9  1C73               	btfss	lcd_display_port@a,0
  2446  02CA  2ACC               	goto	u971
  2447  02CB  2ACD               	goto	u970
  2448  02CC                     u971:	
  2449  02CC  2AD0               	goto	l189
  2450  02CD                     u970:	
  2451  02CD                     l1377:	
  2452                           
  2453                           ;lcd_display.c: 8:   LATA0 = 1;
  2454  02CD  0022               	movlb	2	; select bank2
  2455  02CE  140C               	bsf	12,0	;volatile
  2456  02CF  2AD2               	goto	l1379
  2457  02D0                     l189:	
  2458                           ;lcd_display.c: 9:  else
  2459                           
  2460                           
  2461                           ;lcd_display.c: 10:   LATA0 = 0;
  2462  02D0  0022               	movlb	2	; select bank2
  2463  02D1  100C               	bcf	12,0	;volatile
  2464  02D2                     l1379:	
  2465                           
  2466                           ;lcd_display.c: 12:  if(a & 2)
  2467  02D2  1CF3               	btfss	lcd_display_port@a,1
  2468  02D3  2AD5               	goto	u981
  2469  02D4  2AD6               	goto	u980
  2470  02D5                     u981:	
  2471  02D5  2AD8               	goto	l191
  2472  02D6                     u980:	
  2473  02D6                     l1381:	
  2474                           
  2475                           ;lcd_display.c: 13:   LATA1 = 1;
  2476  02D6  148C               	bsf	12,1	;volatile
  2477  02D7  2AD9               	goto	l1383
  2478  02D8                     l191:	
  2479                           ;lcd_display.c: 14:  else
  2480                           
  2481                           
  2482                           ;lcd_display.c: 15:   LATA1 = 0;
  2483  02D8  108C               	bcf	12,1	;volatile
  2484  02D9                     l1383:	
  2485                           
  2486                           ;lcd_display.c: 17:  if(a & 4)
  2487  02D9  1D73               	btfss	lcd_display_port@a,2
  2488  02DA  2ADC               	goto	u991
  2489  02DB  2ADD               	goto	u990
  2490  02DC                     u991:	
  2491  02DC  2ADF               	goto	l193
  2492  02DD                     u990:	
  2493  02DD                     l1385:	
  2494                           
  2495                           ;lcd_display.c: 18:   LATA2 = 1;
  2496  02DD  150C               	bsf	12,2	;volatile
  2497  02DE  2AE0               	goto	l1387
  2498  02DF                     l193:	
  2499                           ;lcd_display.c: 19:  else
  2500                           
  2501                           
  2502                           ;lcd_display.c: 20:   LATA2 = 0;
  2503  02DF  110C               	bcf	12,2	;volatile
  2504  02E0                     l1387:	
  2505                           
  2506                           ;lcd_display.c: 22:  if(a & 8)
  2507  02E0  1DF3               	btfss	lcd_display_port@a,3
  2508  02E1  2AE3               	goto	u1001
  2509  02E2  2AE4               	goto	u1000
  2510  02E3                     u1001:	
  2511  02E3  2AE6               	goto	l195
  2512  02E4                     u1000:	
  2513  02E4                     l1389:	
  2514                           
  2515                           ;lcd_display.c: 23:   LATA3 = 1;
  2516  02E4  158C               	bsf	12,3	;volatile
  2517  02E5  2AE7               	goto	l197
  2518  02E6                     l195:	
  2519                           ;lcd_display.c: 24:  else
  2520                           
  2521                           
  2522                           ;lcd_display.c: 25:   LATA3 = 0;
  2523  02E6  118C               	bcf	12,3	;volatile
  2524  02E7                     l197:	
  2525  02E7  0008               	return
  2526  02E8                     __end_of_lcd_display_port:	
  2527                           
  2528                           	psect	text12
  2529  037F                     __ptext12:	
  2530 ;; *************** function _init *****************
  2531 ;; Defined at:
  2532 ;;		line 10 in file "init.c"
  2533 ;; Parameters:    Size  Location     Type
  2534 ;;		None
  2535 ;; Auto vars:     Size  Location     Type
  2536 ;;		None
  2537 ;; Return value:  Size  Location     Type
  2538 ;;                  1    wreg      void 
  2539 ;; Registers used:
  2540 ;;		wreg, status,2, status,0, pclath, cstack
  2541 ;; Tracked objects:
  2542 ;;		On entry : 0/0
  2543 ;;		On exit  : 0/0
  2544 ;;		Unchanged: 0/0
  2545 ;; Data sizes:     COMMON   BANK0   BANK1   BANK2   BANK3   BANK4   BANK5   BANK6   BANK7   BANK8   BANK9  BANK10  BANK1
      +1  BANK12
  2546 ;;      Params:         0       0       0       0       0       0       0       0       0       0       0       0       
      +0       0
  2547 ;;      Locals:         0       0       0       0       0       0       0       0       0       0       0       0       
      +0       0
  2548 ;;      Temps:          0       0       0       0       0       0       0       0       0       0       0       0       
      +0       0
  2549 ;;      Totals:         0       0       0       0       0       0       0       0       0       0       0       0       
      +0       0
  2550 ;;Total ram usage:        0 bytes
  2551 ;; Hardware stack levels used:    1
  2552 ;; Hardware stack levels required when called:    5
  2553 ;; This function calls:
  2554 ;;		_init_i2c
  2555 ;;		_init_interrupt
  2556 ;;		_init_oscillator
  2557 ;;		_init_ports
  2558 ;; This function is called by:
  2559 ;;		_main
  2560 ;; This function uses a non-reentrant model
  2561 ;;
  2562                           
  2563                           
  2564                           ;psect for function _init
  2565  037F                     _init:	
  2566  037F                     l1015:	
  2567                           ;incstack = 0
  2568                           ; Regs used in _init: [wreg+status,2+status,0+pclath+cstack]
  2569                           
  2570                           
  2571                           ;init.c: 12:     init_oscillator();
  2572  037F  3183  23BE  3183   	fcall	_init_oscillator
  2573  0382                     l1017:	
  2574                           
  2575                           ;init.c: 13:     init_ports();
  2576  0382  3183  23B7  3183   	fcall	_init_ports
  2577  0385                     l1019:	
  2578                           
  2579                           ;init.c: 14:     init_i2c();
  2580  0385  3183  2337  3183   	fcall	_init_i2c
  2581  0388                     l1021:	
  2582                           
  2583                           ;init.c: 15:     init_interrupt();
  2584  0388  3183  23CB  3183   	fcall	_init_interrupt
  2585  038B                     l121:	
  2586  038B  0008               	return
  2587  038C                     __end_of_init:	
  2588                           
  2589                           	psect	text13
  2590  03B7                     __ptext13:	
  2591 ;; *************** function _init_ports *****************
  2592 ;; Defined at:
  2593 ;;		line 26 in file "init.c"
  2594 ;; Parameters:    Size  Location     Type
  2595 ;;		None
  2596 ;; Auto vars:     Size  Location     Type
  2597 ;;		None
  2598 ;; Return value:  Size  Location     Type
  2599 ;;                  1    wreg      void 
  2600 ;; Registers used:
  2601 ;;		status,2, status,0, pclath, cstack
  2602 ;; Tracked objects:
  2603 ;;		On entry : 0/0
  2604 ;;		On exit  : 0/0
  2605 ;;		Unchanged: 0/0
  2606 ;; Data sizes:     COMMON   BANK0   BANK1   BANK2   BANK3   BANK4   BANK5   BANK6   BANK7   BANK8   BANK9  BANK10  BANK1
      +1  BANK12
  2607 ;;      Params:         0       0       0       0       0       0       0       0       0       0       0       0       
      +0       0
  2608 ;;      Locals:         0       0       0       0       0       0       0       0       0       0       0       0       
      +0       0
  2609 ;;      Temps:          0       0       0       0       0       0       0       0       0       0       0       0       
      +0       0
  2610 ;;      Totals:         0       0       0       0       0       0       0       0       0       0       0       0       
      +0       0
  2611 ;;Total ram usage:        0 bytes
  2612 ;; Hardware stack levels used:    1
  2613 ;; Hardware stack levels required when called:    4
  2614 ;; This function calls:
  2615 ;;		_res_ports
  2616 ;;		_set_ports
  2617 ;; This function is called by:
  2618 ;;		_init
  2619 ;; This function uses a non-reentrant model
  2620 ;;
  2621                           
  2622                           
  2623                           ;psect for function _init_ports
  2624  03B7                     _init_ports:	
  2625  03B7                     l983:	
  2626                           ;incstack = 0
  2627                           ; Regs used in _init_ports: [status,2+status,0+pclath+cstack]
  2628                           
  2629                           
  2630                           ;init.c: 28:     res_ports ();
  2631  03B7  3183  236F  3183   	fcall	_res_ports
  2632                           
  2633                           ;init.c: 29:     set_ports ();
  2634  03BA  3183  23D0  3183   	fcall	_set_ports
  2635  03BD                     l127:	
  2636  03BD  0008               	return
  2637  03BE                     __end_of_init_ports:	
  2638                           
  2639                           	psect	text14
  2640  03D0                     __ptext14:	
  2641 ;; *************** function _set_ports *****************
  2642 ;; Defined at:
  2643 ;;		line 52 in file "init.c"
  2644 ;; Parameters:    Size  Location     Type
  2645 ;;		None
  2646 ;; Auto vars:     Size  Location     Type
  2647 ;;		None
  2648 ;; Return value:  Size  Location     Type
  2649 ;;                  1    wreg      void 
  2650 ;; Registers used:
  2651 ;;		None
  2652 ;; Tracked objects:
  2653 ;;		On entry : 0/0
  2654 ;;		On exit  : 0/0
  2655 ;;		Unchanged: 0/0
  2656 ;; Data sizes:     COMMON   BANK0   BANK1   BANK2   BANK3   BANK4   BANK5   BANK6   BANK7   BANK8   BANK9  BANK10  BANK1
      +1  BANK12
  2657 ;;      Params:         0       0       0       0       0       0       0       0       0       0       0       0       
      +0       0
  2658 ;;      Locals:         0       0       0       0       0       0       0       0       0       0       0       0       
      +0       0
  2659 ;;      Temps:          0       0       0       0       0       0       0       0       0       0       0       0       
      +0       0
  2660 ;;      Totals:         0       0       0       0       0       0       0       0       0       0       0       0       
      +0       0
  2661 ;;Total ram usage:        0 bytes
  2662 ;; Hardware stack levels used:    1
  2663 ;; Hardware stack levels required when called:    3
  2664 ;; This function calls:
  2665 ;;		Nothing
  2666 ;; This function is called by:
  2667 ;;		_init_ports
  2668 ;; This function uses a non-reentrant model
  2669 ;;
  2670                           
  2671                           
  2672                           ;psect for function _set_ports
  2673  03D0                     _set_ports:	
  2674  03D0                     l133:	
  2675                           ;incstack = 0
  2676                           ; Regs used in _set_ports: []
  2677                           
  2678  03D0  0008               	return
  2679  03D1                     __end_of_set_ports:	
  2680                           
  2681                           	psect	text15
  2682  036F                     __ptext15:	
  2683 ;; *************** function _res_ports *****************
  2684 ;; Defined at:
  2685 ;;		line 31 in file "init.c"
  2686 ;; Parameters:    Size  Location     Type
  2687 ;;		None
  2688 ;; Auto vars:     Size  Location     Type
  2689 ;;		None
  2690 ;; Return value:  Size  Location     Type
  2691 ;;                  1    wreg      void 
  2692 ;; Registers used:
  2693 ;;		status,2
  2694 ;; Tracked objects:
  2695 ;;		On entry : 0/0
  2696 ;;		On exit  : 0/0
  2697 ;;		Unchanged: 0/0
  2698 ;; Data sizes:     COMMON   BANK0   BANK1   BANK2   BANK3   BANK4   BANK5   BANK6   BANK7   BANK8   BANK9  BANK10  BANK1
      +1  BANK12
  2699 ;;      Params:         0       0       0       0       0       0       0       0       0       0       0       0       
      +0       0
  2700 ;;      Locals:         0       0       0       0       0       0       0       0       0       0       0       0       
      +0       0
  2701 ;;      Temps:          0       0       0       0       0       0       0       0       0       0       0       0       
      +0       0
  2702 ;;      Totals:         0       0       0       0       0       0       0       0       0       0       0       0       
      +0       0
  2703 ;;Total ram usage:        0 bytes
  2704 ;; Hardware stack levels used:    1
  2705 ;; Hardware stack levels required when called:    3
  2706 ;; This function calls:
  2707 ;;		Nothing
  2708 ;; This function is called by:
  2709 ;;		_init_ports
  2710 ;; This function uses a non-reentrant model
  2711 ;;
  2712                           
  2713                           
  2714                           ;psect for function _res_ports
  2715  036F                     _res_ports:	
  2716  036F                     l963:	
  2717                           ;incstack = 0
  2718                           ; Regs used in _res_ports: [status,2]
  2719                           
  2720                           
  2721                           ;init.c: 34:     TRISA = 0x00;
  2722  036F  0021               	movlb	1	; select bank1
  2723  0370  018C               	clrf	12	;volatile
  2724                           
  2725                           ;init.c: 35:     TRISB = 0x00;
  2726  0371  018D               	clrf	13	;volatile
  2727                           
  2728                           ;init.c: 36:     TRISC = 0x00;
  2729  0372  018E               	clrf	14	;volatile
  2730                           
  2731                           ;init.c: 37:     TRISD = 0x00;
  2732  0373  018F               	clrf	15	;volatile
  2733                           
  2734                           ;init.c: 40:     LATA = 0x00;
  2735  0374  0022               	movlb	2	; select bank2
  2736  0375  018C               	clrf	12	;volatile
  2737                           
  2738                           ;init.c: 41:     LATB = 0x00;
  2739  0376  018D               	clrf	13	;volatile
  2740                           
  2741                           ;init.c: 42:     LATC = 0x00;
  2742  0377  018E               	clrf	14	;volatile
  2743                           
  2744                           ;init.c: 43:     LATD = 0x00;
  2745  0378  018F               	clrf	15	;volatile
  2746                           
  2747                           ;init.c: 46:     ANSELA = 0x00;
  2748  0379  0023               	movlb	3	; select bank3
  2749  037A  018C               	clrf	12	;volatile
  2750                           
  2751                           ;init.c: 47:     ANSELB = 0x00;
  2752  037B  018D               	clrf	13	;volatile
  2753                           
  2754                           ;init.c: 48:     ANSELC = 0x00;
  2755  037C  018E               	clrf	14	;volatile
  2756                           
  2757                           ;init.c: 49:     ANSELD = 0x00;
  2758  037D  018F               	clrf	15	;volatile
  2759  037E                     l130:	
  2760  037E  0008               	return
  2761  037F                     __end_of_res_ports:	
  2762                           
  2763                           	psect	text16
  2764  03BE                     __ptext16:	
  2765 ;; *************** function _init_oscillator *****************
  2766 ;; Defined at:
  2767 ;;		line 18 in file "init.c"
  2768 ;; Parameters:    Size  Location     Type
  2769 ;;		None
  2770 ;; Auto vars:     Size  Location     Type
  2771 ;;		None
  2772 ;; Return value:  Size  Location     Type
  2773 ;;                  1    wreg      void 
  2774 ;; Registers used:
  2775 ;;		wreg, status,2, status,0
  2776 ;; Tracked objects:
  2777 ;;		On entry : 0/0
  2778 ;;		On exit  : 0/0
  2779 ;;		Unchanged: 0/0
  2780 ;; Data sizes:     COMMON   BANK0   BANK1   BANK2   BANK3   BANK4   BANK5   BANK6   BANK7   BANK8   BANK9  BANK10  BANK1
      +1  BANK12
  2781 ;;      Params:         0       0       0       0       0       0       0       0       0       0       0       0       
      +0       0
  2782 ;;      Locals:         0       0       0       0       0       0       0       0       0       0       0       0       
      +0       0
  2783 ;;      Temps:          0       0       0       0       0       0       0       0       0       0       0       0       
      +0       0
  2784 ;;      Totals:         0       0       0       0       0       0       0       0       0       0       0       0       
      +0       0
  2785 ;;Total ram usage:        0 bytes
  2786 ;; Hardware stack levels used:    1
  2787 ;; Hardware stack levels required when called:    3
  2788 ;; This function calls:
  2789 ;;		Nothing
  2790 ;; This function is called by:
  2791 ;;		_init
  2792 ;; This function uses a non-reentrant model
  2793 ;;
  2794                           
  2795                           
  2796                           ;psect for function _init_oscillator
  2797  03BE                     _init_oscillator:	
  2798  03BE                     l979:	
  2799                           ;incstack = 0
  2800                           ; Regs used in _init_oscillator: [wreg+status,2+status,0]
  2801                           
  2802                           
  2803                           ;init.c: 20:     OSCCONbits.SCS1 = 1;
  2804  03BE  0021               	movlb	1	; select bank1
  2805  03BF  1499               	bsf	25,1	;volatile
  2806  03C0                     l981:	
  2807                           
  2808                           ;init.c: 21:     OSCCONbits.IRCF = 0b1110;
  2809  03C0  0819               	movf	25,w	;volatile
  2810  03C1  3987               	andlw	-121
  2811  03C2  3870               	iorlw	112
  2812  03C3  0099               	movwf	25	;volatile
  2813  03C4                     l124:	
  2814  03C4  0008               	return
  2815  03C5                     __end_of_init_oscillator:	
  2816                           
  2817                           	psect	text17
  2818  03CB                     __ptext17:	
  2819 ;; *************** function _init_interrupt *****************
  2820 ;; Defined at:
  2821 ;;		line 93 in file "init.c"
  2822 ;; Parameters:    Size  Location     Type
  2823 ;;		None
  2824 ;; Auto vars:     Size  Location     Type
  2825 ;;		None
  2826 ;; Return value:  Size  Location     Type
  2827 ;;                  1    wreg      void 
  2828 ;; Registers used:
  2829 ;;		wreg, status,2, status,0, pclath, cstack
  2830 ;; Tracked objects:
  2831 ;;		On entry : 0/0
  2832 ;;		On exit  : 0/0
  2833 ;;		Unchanged: 0/0
  2834 ;; Data sizes:     COMMON   BANK0   BANK1   BANK2   BANK3   BANK4   BANK5   BANK6   BANK7   BANK8   BANK9  BANK10  BANK1
      +1  BANK12
  2835 ;;      Params:         0       0       0       0       0       0       0       0       0       0       0       0       
      +0       0
  2836 ;;      Locals:         0       0       0       0       0       0       0       0       0       0       0       0       
      +0       0
  2837 ;;      Temps:          0       0       0       0       0       0       0       0       0       0       0       0       
      +0       0
  2838 ;;      Totals:         0       0       0       0       0       0       0       0       0       0       0       0       
      +0       0
  2839 ;;Total ram usage:        0 bytes
  2840 ;; Hardware stack levels used:    1
  2841 ;; Hardware stack levels required when called:    4
  2842 ;; This function calls:
  2843 ;;		_init_interrupt_timer
  2844 ;; This function is called by:
  2845 ;;		_init
  2846 ;; This function uses a non-reentrant model
  2847 ;;
  2848                           
  2849                           
  2850                           ;psect for function _init_interrupt
  2851  03CB                     _init_interrupt:	
  2852  03CB                     l1003:	
  2853                           ;incstack = 0
  2854                           ; Regs used in _init_interrupt: [wreg+status,2+status,0+pclath+cstack]
  2855                           
  2856                           
  2857                           ;init.c: 95:     init_interrupt_timer ();
  2858  03CB  3183  2398  3183   	fcall	_init_interrupt_timer
  2859  03CE                     l1005:	
  2860                           
  2861                           ;init.c: 98:     INTCONbits.GIE = 1;
  2862  03CE  178B               	bsf	11,7	;volatile
  2863  03CF                     l139:	
  2864  03CF  0008               	return
  2865  03D0                     __end_of_init_interrupt:	
  2866                           
  2867                           	psect	text18
  2868  0398                     __ptext18:	
  2869 ;; *************** function _init_interrupt_timer *****************
  2870 ;; Defined at:
  2871 ;;		line 102 in file "init.c"
  2872 ;; Parameters:    Size  Location     Type
  2873 ;;		None
  2874 ;; Auto vars:     Size  Location     Type
  2875 ;;		None
  2876 ;; Return value:  Size  Location     Type
  2877 ;;                  1    wreg      void 
  2878 ;; Registers used:
  2879 ;;		wreg, status,2, status,0
  2880 ;; Tracked objects:
  2881 ;;		On entry : 0/0
  2882 ;;		On exit  : 0/0
  2883 ;;		Unchanged: 0/0
  2884 ;; Data sizes:     COMMON   BANK0   BANK1   BANK2   BANK3   BANK4   BANK5   BANK6   BANK7   BANK8   BANK9  BANK10  BANK1
      +1  BANK12
  2885 ;;      Params:         0       0       0       0       0       0       0       0       0       0       0       0       
      +0       0
  2886 ;;      Locals:         0       0       0       0       0       0       0       0       0       0       0       0       
      +0       0
  2887 ;;      Temps:          0       0       0       0       0       0       0       0       0       0       0       0       
      +0       0
  2888 ;;      Totals:         0       0       0       0       0       0       0       0       0       0       0       0       
      +0       0
  2889 ;;Total ram usage:        0 bytes
  2890 ;; Hardware stack levels used:    1
  2891 ;; Hardware stack levels required when called:    3
  2892 ;; This function calls:
  2893 ;;		Nothing
  2894 ;; This function is called by:
  2895 ;;		_init_interrupt
  2896 ;; This function uses a non-reentrant model
  2897 ;;
  2898                           
  2899                           
  2900                           ;psect for function _init_interrupt_timer
  2901  0398                     _init_interrupt_timer:	
  2902  0398                     l965:	
  2903                           ;incstack = 0
  2904                           ; Regs used in _init_interrupt_timer: [wreg+status,2+status,0]
  2905                           
  2906                           
  2907                           ;init.c: 105:     OPTION_REGbits.PSA = 0;
  2908  0398  0021               	movlb	1	; select bank1
  2909  0399  1195               	bcf	21,3	;volatile
  2910  039A                     l967:	
  2911                           
  2912                           ;init.c: 107:     OPTION_REGbits.PS = 0b100;
  2913  039A  0815               	movf	21,w	;volatile
  2914  039B  39F8               	andlw	-8
  2915  039C  3804               	iorlw	4
  2916  039D  0095               	movwf	21	;volatile
  2917  039E                     l969:	
  2918                           
  2919                           ;init.c: 110:     OPTION_REGbits.TMR0CS = 0;
  2920  039E  1295               	bcf	21,5	;volatile
  2921  039F                     l971:	
  2922                           
  2923                           ;init.c: 113:     OPTION_REGbits.TMR0SE = 0;
  2924  039F  1215               	bcf	21,4	;volatile
  2925  03A0                     l973:	
  2926                           
  2927                           ;init.c: 117:     T0IE = 1;
  2928  03A0  168B               	bsf	11,5	;volatile
  2929  03A1                     l975:	
  2930                           
  2931                           ;init.c: 119:     TMR0 = 0;
  2932  03A1  0020               	movlb	0	; select bank0
  2933  03A2  0195               	clrf	21	;volatile
  2934  03A3                     l142:	
  2935  03A3  0008               	return
  2936  03A4                     __end_of_init_interrupt_timer:	
  2937                           
  2938                           	psect	text19
  2939  0337                     __ptext19:	
  2940 ;; *************** function _init_i2c *****************
  2941 ;; Defined at:
  2942 ;;		line 57 in file "init.c"
  2943 ;; Parameters:    Size  Location     Type
  2944 ;;		None
  2945 ;; Auto vars:     Size  Location     Type
  2946 ;;		None
  2947 ;; Return value:  Size  Location     Type
  2948 ;;                  1    wreg      void 
  2949 ;; Registers used:
  2950 ;;		wreg, status,2
  2951 ;; Tracked objects:
  2952 ;;		On entry : 0/0
  2953 ;;		On exit  : 0/0
  2954 ;;		Unchanged: 0/0
  2955 ;; Data sizes:     COMMON   BANK0   BANK1   BANK2   BANK3   BANK4   BANK5   BANK6   BANK7   BANK8   BANK9  BANK10  BANK1
      +1  BANK12
  2956 ;;      Params:         0       0       0       0       0       0       0       0       0       0       0       0       
      +0       0
  2957 ;;      Locals:         0       0       0       0       0       0       0       0       0       0       0       0       
      +0       0
  2958 ;;      Temps:          0       0       0       0       0       0       0       0       0       0       0       0       
      +0       0
  2959 ;;      Totals:         0       0       0       0       0       0       0       0       0       0       0       0       
      +0       0
  2960 ;;Total ram usage:        0 bytes
  2961 ;; Hardware stack levels used:    1
  2962 ;; Hardware stack levels required when called:    3
  2963 ;; This function calls:
  2964 ;;		Nothing
  2965 ;; This function is called by:
  2966 ;;		_init
  2967 ;; This function uses a non-reentrant model
  2968 ;;
  2969                           
  2970                           
  2971                           ;psect for function _init_i2c
  2972  0337                     _init_i2c:	
  2973  0337                     l985:	
  2974                           ;incstack = 0
  2975                           ; Regs used in _init_i2c: [wreg+status,2]
  2976                           
  2977                           
  2978                           ;init.c: 60:     TRISCbits.TRISC3 = 1;
  2979  0337  0021               	movlb	1	; select bank1
  2980  0338  158E               	bsf	14,3	;volatile
  2981                           
  2982                           ;init.c: 61:     TRISCbits.TRISC4 = 1;
  2983  0339  160E               	bsf	14,4	;volatile
  2984  033A                     l987:	
  2985                           
  2986                           ;init.c: 66:     SSPCON1 = 0b00110110;
  2987  033A  3036               	movlw	54
  2988  033B  0024               	movlb	4	; select bank4
  2989  033C  0095               	movwf	21	;volatile
  2990                           
  2991                           ;init.c: 69:     SSPCON2 = 0x01;
  2992  033D  3001               	movlw	1
  2993  033E  0096               	movwf	22	;volatile
  2994  033F                     l989:	
  2995                           
  2996                           ;init.c: 72:     SSPCON3 = 0b00000000;
  2997  033F  0197               	clrf	23	;volatile
  2998  0340                     l991:	
  2999                           
  3000                           ;init.c: 75:     SSPADD = 0x30;
  3001  0340  3030               	movlw	48
  3002  0341  0092               	movwf	18	;volatile
  3003  0342                     l993:	
  3004                           
  3005                           ;init.c: 78:     SSPSTAT = 0x80;
  3006  0342  3080               	movlw	128
  3007  0343  0094               	movwf	20	;volatile
  3008  0344                     l995:	
  3009                           
  3010                           ;init.c: 81:     INTCONbits.GIE = 1;
  3011  0344  178B               	bsf	11,7	;volatile
  3012  0345                     l997:	
  3013                           
  3014                           ;init.c: 84:     INTCONbits.PEIE = 1;
  3015  0345  170B               	bsf	11,6	;volatile
  3016  0346                     l999:	
  3017                           
  3018                           ;init.c: 87:     SSPIF = 0;
  3019  0346  0020               	movlb	0	; select bank0
  3020  0347  1191               	bcf	17,3	;volatile
  3021  0348                     l1001:	
  3022                           
  3023                           ;init.c: 89:     SSPIE = 1;
  3024  0348  0021               	movlb	1	; select bank1
  3025  0349  1591               	bsf	17,3	;volatile
  3026  034A                     l136:	
  3027  034A  0008               	return
  3028  034B                     __end_of_init_i2c:	
  3029                           
  3030                           	psect	intentry
  3031  0004                     __pintentry:	
  3032 ;; *************** function _interruptHandler *****************
  3033 ;; Defined at:
  3034 ;;		line 7 in file "interrupt.c"
  3035 ;; Parameters:    Size  Location     Type
  3036 ;;		None
  3037 ;; Auto vars:     Size  Location     Type
  3038 ;;		None
  3039 ;; Return value:  Size  Location     Type
  3040 ;;                  1    wreg      void 
  3041 ;; Registers used:
  3042 ;;		wreg, fsr0l, fsr0h, fsr1l, fsr1h, status,2, status,0, pclath, cstack
  3043 ;; Tracked objects:
  3044 ;;		On entry : 0/0
  3045 ;;		On exit  : 0/0
  3046 ;;		Unchanged: 0/0
  3047 ;; Data sizes:     COMMON   BANK0   BANK1   BANK2   BANK3   BANK4   BANK5   BANK6   BANK7   BANK8   BANK9  BANK10  BANK1
      +1  BANK12
  3048 ;;      Params:         0       0       0       0       0       0       0       0       0       0       0       0       
      +0       0
  3049 ;;      Locals:         0       0       0       0       0       0       0       0       0       0       0       0       
      +0       0
  3050 ;;      Temps:          0       0       0       0       0       0       0       0       0       0       0       0       
      +0       0
  3051 ;;      Totals:         0       0       0       0       0       0       0       0       0       0       0       0       
      +0       0
  3052 ;;Total ram usage:        0 bytes
  3053 ;; Hardware stack levels used:    1
  3054 ;; Hardware stack levels required when called:    2
  3055 ;; This function calls:
  3056 ;;		_on_interrupt_i2c
  3057 ;;		_on_interrupt_timer_0
  3058 ;; This function is called by:
  3059 ;;		Interrupt level 1
  3060 ;; This function uses a non-reentrant model
  3061 ;;
  3062                           
  3063  0004                     _interruptHandler:	
  3064                           
  3065                           ;incstack = 0
  3066  0004  147E               	bsf	int$flags,0	;set compiler interrupt flag (level 1)
  3067                           
  3068                           ; Regs used in _interruptHandler: [wreg-fsr1h+status,2+status,0+pclath+cstack]
  3069  0005  3180               	pagesel	$
  3070  0006                     i1l1357:	
  3071                           
  3072                           ;interrupt.c: 10:     if (SSPIE && SSPIF){
  3073  0006  0021               	movlb	1	; select bank1
  3074  0007  1D91               	btfss	17,3	;volatile
  3075  0008  280A               	goto	u93_21
  3076  0009  280B               	goto	u93_20
  3077  000A                     u93_21:	
  3078  000A  2813               	goto	i1l1363
  3079  000B                     u93_20:	
  3080  000B                     i1l1359:	
  3081  000B  0020               	movlb	0	; select bank0
  3082  000C  1D91               	btfss	17,3	;volatile
  3083  000D  280F               	goto	u94_21
  3084  000E  2810               	goto	u94_20
  3085  000F                     u94_21:	
  3086  000F  2813               	goto	i1l1363
  3087  0010                     u94_20:	
  3088  0010                     i1l1361:	
  3089                           
  3090                           ;interrupt.c: 11:         on_interrupt_i2c ();
  3091  0010  3180  2040  3180   	fcall	_on_interrupt_i2c
  3092  0013                     i1l1363:	
  3093                           
  3094                           ;interrupt.c: 15:     if (T0IE && T0IF){
  3095  0013  1E8B               	btfss	11,5	;volatile
  3096  0014  2816               	goto	u95_21
  3097  0015  2817               	goto	u95_20
  3098  0016                     u95_21:	
  3099  0016  281F               	goto	i1l169
  3100  0017                     u95_20:	
  3101  0017                     i1l1365:	
  3102  0017  1D0B               	btfss	11,2	;volatile
  3103  0018  281A               	goto	u96_21
  3104  0019  281B               	goto	u96_20
  3105  001A                     u96_21:	
  3106  001A  281F               	goto	i1l169
  3107  001B                     u96_20:	
  3108  001B                     i1l1367:	
  3109                           
  3110                           ;interrupt.c: 16:         on_interrupt_timer_0();
  3111  001B  3183  23D1  3180   	fcall	_on_interrupt_timer_0
  3112  001E                     i1l1369:	
  3113                           
  3114                           ;interrupt.c: 17:         T0IF = 0;
  3115  001E  110B               	bcf	11,2	;volatile
  3116  001F                     i1l169:	
  3117  001F  107E               	bcf	int$flags,0	;clear compiler interrupt flag (level 1)
  3118  0020  0009               	retfie
  3119  0021                     __end_of_interruptHandler:	
  3120                           
  3121                           	psect	text21
  3122  03D1                     __ptext21:	
  3123 ;; *************** function _on_interrupt_timer_0 *****************
  3124 ;; Defined at:
  3125 ;;		line 21 in file "interrupt.c"
  3126 ;; Parameters:    Size  Location     Type
  3127 ;;		None
  3128 ;; Auto vars:     Size  Location     Type
  3129 ;;		None
  3130 ;; Return value:  Size  Location     Type
  3131 ;;                  1    wreg      void 
  3132 ;; Registers used:
  3133 ;;		None
  3134 ;; Tracked objects:
  3135 ;;		On entry : 0/0
  3136 ;;		On exit  : 0/0
  3137 ;;		Unchanged: 0/0
  3138 ;; Data sizes:     COMMON   BANK0   BANK1   BANK2   BANK3   BANK4   BANK5   BANK6   BANK7   BANK8   BANK9  BANK10  BANK1
      +1  BANK12
  3139 ;;      Params:         0       0       0       0       0       0       0       0       0       0       0       0       
      +0       0
  3140 ;;      Locals:         0       0       0       0       0       0       0       0       0       0       0       0       
      +0       0
  3141 ;;      Temps:          0       0       0       0       0       0       0       0       0       0       0       0       
      +0       0
  3142 ;;      Totals:         0       0       0       0       0       0       0       0       0       0       0       0       
      +0       0
  3143 ;;Total ram usage:        0 bytes
  3144 ;; Hardware stack levels used:    1
  3145 ;; This function calls:
  3146 ;;		Nothing
  3147 ;; This function is called by:
  3148 ;;		_interruptHandler
  3149 ;; This function uses a non-reentrant model
  3150 ;;
  3151                           
  3152                           
  3153                           ;psect for function _on_interrupt_timer_0
  3154  03D1                     _on_interrupt_timer_0:	
  3155  03D1                     i1l172:	
  3156                           ;incstack = 0
  3157                           ; Regs used in _on_interrupt_timer_0: []
  3158                           
  3159  03D1  0008               	return
  3160  03D2                     __end_of_on_interrupt_timer_0:	
  3161                           
  3162                           	psect	text22
  3163  0040                     __ptext22:	
  3164 ;; *************** function _on_interrupt_i2c *****************
  3165 ;; Defined at:
  3166 ;;		line 12 in file "i2c_interrupt.c"
  3167 ;; Parameters:    Size  Location     Type
  3168 ;;		None
  3169 ;; Auto vars:     Size  Location     Type
  3170 ;;  bp_test_var     1    0        unsigned char 
  3171 ;; Return value:  Size  Location     Type
  3172 ;;                  1    wreg      void 
  3173 ;; Registers used:
  3174 ;;		wreg, fsr0l, fsr0h, fsr1l, fsr1h, status,2, status,0, pclath, cstack
  3175 ;; Tracked objects:
  3176 ;;		On entry : 0/0
  3177 ;;		On exit  : 0/0
  3178 ;;		Unchanged: 0/0
  3179 ;; Data sizes:     COMMON   BANK0   BANK1   BANK2   BANK3   BANK4   BANK5   BANK6   BANK7   BANK8   BANK9  BANK10  BANK1
      +1  BANK12
  3180 ;;      Params:         0       0       0       0       0       0       0       0       0       0       0       0       
      +0       0
  3181 ;;      Locals:         1       0       0       0       0       0       0       0       0       0       0       0       
      +0       0
  3182 ;;      Temps:          1       0       0       0       0       0       0       0       0       0       0       0       
      +0       0
  3183 ;;      Totals:         2       0       0       0       0       0       0       0       0       0       0       0       
      +0       0
  3184 ;;Total ram usage:        2 bytes
  3185 ;; Hardware stack levels used:    1
  3186 ;; Hardware stack levels required when called:    1
  3187 ;; This function calls:
  3188 ;;		_update_i2c_related_variables
  3189 ;; This function is called by:
  3190 ;;		_interruptHandler
  3191 ;; This function uses a non-reentrant model
  3192 ;;
  3193                           
  3194                           
  3195                           ;psect for function _on_interrupt_i2c
  3196  0040                     _on_interrupt_i2c:	
  3197  0040                     i1l1289:	
  3198                           ;incstack = 0
  3199                           ; Regs used in _on_interrupt_i2c: [wreg-fsr1h+status,2+status,0+pclath+cstack]
  3200                           
  3201                           
  3202                           ;i2c_interrupt.c: 14:     SSPIF = 0;
  3203  0040  0020               	movlb	0	; select bank0
  3204  0041  1191               	bcf	17,3	;volatile
  3205                           
  3206                           ;i2c_interrupt.c: 15:     CKP = 0;
  3207  0042  0024               	movlb	4	; select bank4
  3208  0043  1215               	bcf	21,4	;volatile
  3209                           
  3210                           ;i2c_interrupt.c: 18:     if ((SSPCONbits.SSPOV) || (SSPCONbits.WCOL))
  3211  0044  1B15               	btfsc	21,6	;volatile
  3212  0045  2847               	goto	u74_21
  3213  0046  2848               	goto	u74_20
  3214  0047                     u74_21:	
  3215  0047  284C               	goto	i1l1293
  3216  0048                     u74_20:	
  3217  0048                     i1l1291:	
  3218  0048  1F95               	btfss	21,7	;volatile
  3219  0049  284B               	goto	u75_21
  3220  004A  284C               	goto	u75_20
  3221  004B                     u75_21:	
  3222  004B  2855               	goto	i1l1301
  3223  004C                     u75_20:	
  3224  004C                     i1l1293:	
  3225                           
  3226                           ;i2c_interrupt.c: 19:     {;i2c_interrupt.c: 20:       current_package.addr = SSPBUF;
  3227  004C  0811               	movf	17,w	;volatile
  3228  004D  00F1               	movwf	??_on_interrupt_i2c
  3229  004E  0871               	movf	??_on_interrupt_i2c,w
  3230  004F  0020               	movlb	0	; select bank0
  3231  0050  00A0               	movwf	_current_package
  3232  0051                     i1l1295:	
  3233                           
  3234                           ;i2c_interrupt.c: 21:       SSPCONbits.SSPOV = 0;
  3235  0051  0024               	movlb	4	; select bank4
  3236  0052  1315               	bcf	21,6	;volatile
  3237  0053                     i1l1297:	
  3238                           
  3239                           ;i2c_interrupt.c: 22:       SSPCONbits.WCOL = 0;
  3240  0053  1395               	bcf	21,7	;volatile
  3241  0054                     i1l1299:	
  3242                           
  3243                           ;i2c_interrupt.c: 23:       SSPCONbits.CKP = 1;
  3244  0054  1615               	bsf	21,4	;volatile
  3245  0055                     i1l1301:	
  3246                           
  3247                           ;i2c_interrupt.c: 27:     if(!D_nA && !R_nW)
  3248  0055  1A94               	btfsc	20,5	;volatile
  3249  0056  2858               	goto	u76_21
  3250  0057  2859               	goto	u76_20
  3251  0058                     u76_21:	
  3252  0058  2868               	goto	i1l265
  3253  0059                     u76_20:	
  3254  0059                     i1l1303:	
  3255  0059  1914               	btfsc	20,2	;volatile
  3256  005A  285C               	goto	u77_21
  3257  005B  285D               	goto	u77_20
  3258  005C                     u77_21:	
  3259  005C  2868               	goto	i1l265
  3260  005D                     u77_20:	
  3261  005D                     i1l1305:	
  3262                           
  3263                           ;i2c_interrupt.c: 28:     {;i2c_interrupt.c: 29:         current_package.addr = SSPBUF;
  3264  005D  0811               	movf	17,w	;volatile
  3265  005E  00F1               	movwf	??_on_interrupt_i2c
  3266  005F  0871               	movf	??_on_interrupt_i2c,w
  3267  0060  0020               	movlb	0	; select bank0
  3268  0061  00A0               	movwf	_current_package
  3269  0062                     i1l266:	
  3270                           ;i2c_interrupt.c: 30:         while(BF);
  3271                           
  3272  0062  0024               	movlb	4	; select bank4
  3273  0063  1814               	btfsc	20,0	;volatile
  3274  0064  2866               	goto	u78_21
  3275  0065  2867               	goto	u78_20
  3276  0066                     u78_21:	
  3277  0066  2862               	goto	i1l266
  3278  0067                     u78_20:	
  3279  0067                     i1l268:	
  3280                           
  3281                           ;i2c_interrupt.c: 31:         CKP = 1;
  3282  0067  1615               	bsf	21,4	;volatile
  3283  0068                     i1l265:	
  3284                           ;i2c_interrupt.c: 32:     }
  3285                           
  3286                           
  3287                           ;i2c_interrupt.c: 33:     if (D_nA && !R_nW)
  3288  0068  1E94               	btfss	20,5	;volatile
  3289  0069  286B               	goto	u79_21
  3290  006A  286C               	goto	u79_20
  3291  006B                     u79_21:	
  3292  006B  2883               	goto	i1l269
  3293  006C                     u79_20:	
  3294  006C                     i1l1307:	
  3295  006C  1914               	btfsc	20,2	;volatile
  3296  006D  286F               	goto	u80_21
  3297  006E  2870               	goto	u80_20
  3298  006F                     u80_21:	
  3299  006F  2883               	goto	i1l269
  3300  0070                     u80_20:	
  3301  0070                     i1l1309:	
  3302                           
  3303                           ;i2c_interrupt.c: 34:     {;i2c_interrupt.c: 35:         current_package.data.value[curr
      +                          ent_package.data.index] = SSPBUF;
  3304  0070  0811               	movf	17,w	;volatile
  3305  0071  00F1               	movwf	??_on_interrupt_i2c
  3306  0072  0020               	movlb	0	; select bank0
  3307  0073  0841               	movf	_current_package+33,w
  3308  0074  3E21               	addlw	(low ((_current_package| 0+1)))& (0+255)
  3309  0075  0086               	movwf	6
  3310  0076  0187               	clrf	7
  3311  0077  0871               	movf	??_on_interrupt_i2c,w
  3312  0078  0081               	movwf	1
  3313  0079                     i1l1311:	
  3314                           
  3315                           ;i2c_interrupt.c: 36:         current_package.data.index++;
  3316  0079  3001               	movlw	1
  3317  007A  00F1               	movwf	??_on_interrupt_i2c
  3318  007B  0871               	movf	??_on_interrupt_i2c,w
  3319  007C  07C1               	addwf	_current_package+33,f
  3320  007D                     i1l270:	
  3321                           ;i2c_interrupt.c: 37:         while(BF);
  3322                           
  3323  007D  0024               	movlb	4	; select bank4
  3324  007E  1814               	btfsc	20,0	;volatile
  3325  007F  2881               	goto	u81_21
  3326  0080  2882               	goto	u81_20
  3327  0081                     u81_21:	
  3328  0081  287D               	goto	i1l270
  3329  0082                     u81_20:	
  3330  0082                     i1l272:	
  3331                           
  3332                           ;i2c_interrupt.c: 38:         CKP = 1;
  3333  0082  1615               	bsf	21,4	;volatile
  3334  0083                     i1l269:	
  3335                           ;i2c_interrupt.c: 39:     }
  3336                           
  3337                           
  3338                           ;i2c_interrupt.c: 42:     if(!D_nA && R_nW)
  3339  0083  1A94               	btfsc	20,5	;volatile
  3340  0084  2886               	goto	u82_21
  3341  0085  2887               	goto	u82_20
  3342  0086                     u82_21:	
  3343  0086  28AA               	goto	i1l273
  3344  0087                     u82_20:	
  3345  0087                     i1l1313:	
  3346  0087  1D14               	btfss	20,2	;volatile
  3347  0088  288A               	goto	u83_21
  3348  0089  288B               	goto	u83_20
  3349  008A                     u83_21:	
  3350  008A  28AA               	goto	i1l273
  3351  008B                     u83_20:	
  3352  008B                     i1l1315:	
  3353                           
  3354                           ;i2c_interrupt.c: 43:     {;i2c_interrupt.c: 44:         current_package.addr = SSPBUF;
  3355  008B  0811               	movf	17,w	;volatile
  3356  008C  00F1               	movwf	??_on_interrupt_i2c
  3357  008D  0871               	movf	??_on_interrupt_i2c,w
  3358  008E  0020               	movlb	0	; select bank0
  3359  008F  00A0               	movwf	_current_package
  3360  0090                     i1l274:	
  3361                           ;i2c_interrupt.c: 45:         while(BF);
  3362                           
  3363  0090  0024               	movlb	4	; select bank4
  3364  0091  1814               	btfsc	20,0	;volatile
  3365  0092  2894               	goto	u84_21
  3366  0093  2895               	goto	u84_20
  3367  0094                     u84_21:	
  3368  0094  2890               	goto	i1l274
  3369  0095                     u84_20:	
  3370  0095                     i1l1317:	
  3371                           
  3372                           ;i2c_interrupt.c: 46:         SSPBUF = 0x54;
  3373  0095  3054               	movlw	84
  3374  0096  0091               	movwf	17	;volatile
  3375  0097                     i1l277:	
  3376                           ;i2c_interrupt.c: 47:         while (SSPIF);
  3377                           
  3378  0097  0020               	movlb	0	; select bank0
  3379  0098  1991               	btfsc	17,3	;volatile
  3380  0099  289B               	goto	u85_21
  3381  009A  289C               	goto	u85_20
  3382  009B                     u85_21:	
  3383  009B  2897               	goto	i1l277
  3384  009C                     u85_20:	
  3385  009C  28A4               	goto	i1l280
  3386  009D                     i1l1319:	
  3387                           
  3388                           ;i2c_interrupt.c: 50:             SSPBUF = 0x54;
  3389  009D  3054               	movlw	84
  3390  009E  0091               	movwf	17	;volatile
  3391  009F                     i1l282:	
  3392                           ;i2c_interrupt.c: 51:             while (SSPIF);
  3393                           
  3394  009F  0020               	movlb	0	; select bank0
  3395  00A0  1991               	btfsc	17,3	;volatile
  3396  00A1  28A3               	goto	u86_21
  3397  00A2  28A4               	goto	u86_20
  3398  00A3                     u86_21:	
  3399  00A3  289F               	goto	i1l282
  3400  00A4                     u86_20:	
  3401  00A4                     i1l280:	
  3402                           ;i2c_interrupt.c: 52:         }
  3403                           
  3404                           
  3405                           ;i2c_interrupt.c: 49:         while (!ACKSTAT) {
  3406  00A4  0024               	movlb	4	; select bank4
  3407  00A5  1F16               	btfss	22,6	;volatile
  3408  00A6  28A8               	goto	u87_21
  3409  00A7  28A9               	goto	u87_20
  3410  00A8                     u87_21:	
  3411  00A8  289D               	goto	i1l1319
  3412  00A9                     u87_20:	
  3413  00A9                     i1l285:	
  3414                           
  3415                           ;i2c_interrupt.c: 53:         CKP = 1;
  3416  00A9  1615               	bsf	21,4	;volatile
  3417  00AA                     i1l273:	
  3418                           ;i2c_interrupt.c: 54:     }
  3419                           
  3420                           
  3421                           ;i2c_interrupt.c: 55:     if (D_nA && R_nW)
  3422  00AA  1E94               	btfss	20,5	;volatile
  3423  00AB  28AD               	goto	u88_21
  3424  00AC  28AE               	goto	u88_20
  3425  00AD                     u88_21:	
  3426  00AD  28B3               	goto	i1l1327
  3427  00AE                     u88_20:	
  3428  00AE                     i1l1321:	
  3429  00AE  1D14               	btfss	20,2	;volatile
  3430  00AF  28B1               	goto	u89_21
  3431  00B0  28B2               	goto	u89_20
  3432  00B1                     u89_21:	
  3433  00B1  28B3               	goto	i1l1327
  3434  00B2                     u89_20:	
  3435  00B2                     i1l1323:	
  3436  00B2                     i1l1325:	
  3437                           
  3438                           ;i2c_interrupt.c: 58:         CKP = 1;
  3439  00B2  1615               	bsf	21,4	;volatile
  3440  00B3                     i1l1327:	
  3441                           
  3442                           ;i2c_interrupt.c: 62:     if (SSPSTATbits.P)
  3443  00B3  1E14               	btfss	20,4	;volatile
  3444  00B4  28B6               	goto	u90_21
  3445  00B5  28B7               	goto	u90_20
  3446  00B6                     u90_21:	
  3447  00B6  28D8               	goto	i1l288
  3448  00B7                     u90_20:	
  3449  00B7                     i1l1329:	
  3450                           
  3451                           ;i2c_interrupt.c: 63:     {;i2c_interrupt.c: 65:         update_i2c_related_variables(cu
      +                          rrent_package);
  3452  00B7  3020               	movlw	low _current_package
  3453  00B8  0086               	movwf	6
  3454  00B9  3000               	movlw	high _current_package
  3455  00BA  0087               	movwf	7
  3456  00BB  3042               	movlw	low update_i2c_related_variables@package
  3457  00BC  0084               	movwf	4
  3458  00BD  3000               	movlw	high update_i2c_related_variables@package
  3459  00BE  0085               	movwf	5
  3460  00BF  3022               	movlw	34
  3461  00C0  00F1               	movwf	??_on_interrupt_i2c
  3462  00C1                     u91_20:	
  3463  00C1  0016               	moviw fsr1++
  3464  00C2  001A               	movwi fsr0++
  3465  00C3  0BF1               	decfsz	??_on_interrupt_i2c,f
  3466  00C4  28C1               	goto	u91_20
  3467  00C5  3182  226F  3180   	fcall	_update_i2c_related_variables
  3468  00C8                     i1l1331:	
  3469                           
  3470                           ;i2c_interrupt.c: 66:         current_package = I2C_PACKAGE_EMPTY;
  3471  00C8  3033               	movlw	low (_I2C_PACKAGE_EMPTY| (0+32768))
  3472  00C9  0084               	movwf	4
  3473  00CA  3082               	movlw	high (_I2C_PACKAGE_EMPTY| (0+32768))
  3474  00CB  0085               	movwf	5
  3475  00CC  3020               	movlw	low _current_package
  3476  00CD  0086               	movwf	6
  3477  00CE  3000               	movlw	high _current_package
  3478  00CF  0087               	movwf	7
  3479  00D0  3022               	movlw	34
  3480  00D1  00F1               	movwf	??_on_interrupt_i2c
  3481  00D2                     u92_20:	
  3482  00D2  0012               	moviw fsr0++
  3483  00D3  001E               	movwi fsr1++
  3484  00D4  0BF1               	decfsz	??_on_interrupt_i2c,f
  3485  00D5  28D2               	goto	u92_20
  3486  00D6                     i1l1333:	
  3487                           
  3488                           ;i2c_interrupt.c: 68:         CKP = 1;
  3489  00D6  0024               	movlb	4	; select bank4
  3490  00D7  1615               	bsf	21,4	;volatile
  3491  00D8                     i1l288:	
  3492  00D8  0008               	return
  3493  00D9                     __end_of_on_interrupt_i2c:	
  3494                           
  3495                           	psect	text23
  3496  026F                     __ptext23:	
  3497 ;; *************** function _update_i2c_related_variables *****************
  3498 ;; Defined at:
  3499 ;;		line 72 in file "i2c_interrupt.c"
  3500 ;; Parameters:    Size  Location     Type
  3501 ;;  package        34    0[BANK0 ] struct .
  3502 ;; Auto vars:     Size  Location     Type
  3503 ;;		None
  3504 ;; Return value:  Size  Location     Type
  3505 ;;                  1    wreg      void 
  3506 ;; Registers used:
  3507 ;;		wreg, fsr0l, fsr0h, fsr1l, fsr1h, status,2, status,0
  3508 ;; Tracked objects:
  3509 ;;		On entry : 0/0
  3510 ;;		On exit  : 0/0
  3511 ;;		Unchanged: 0/0
  3512 ;; Data sizes:     COMMON   BANK0   BANK1   BANK2   BANK3   BANK4   BANK5   BANK6   BANK7   BANK8   BANK9  BANK10  BANK1
      +1  BANK12
  3513 ;;      Params:         0      34       0       0       0       0       0       0       0       0       0       0       
      +0       0
  3514 ;;      Locals:         0       0       0       0       0       0       0       0       0       0       0       0       
      +0       0
  3515 ;;      Temps:          1       0       0       0       0       0       0       0       0       0       0       0       
      +0       0
  3516 ;;      Totals:         1      34       0       0       0       0       0       0       0       0       0       0       
      +0       0
  3517 ;;Total ram usage:       35 bytes
  3518 ;; Hardware stack levels used:    1
  3519 ;; This function calls:
  3520 ;;		Nothing
  3521 ;; This function is called by:
  3522 ;;		_on_interrupt_i2c
  3523 ;; This function uses a non-reentrant model
  3524 ;;
  3525                           
  3526                           
  3527                           ;psect for function _update_i2c_related_variables
  3528  026F                     _update_i2c_related_variables:	
  3529  026F                     i1l1263:	
  3530                           ;incstack = 0
  3531                           ; Regs used in _update_i2c_related_variables: [wreg-fsr1h+status,2+status,0]
  3532                           
  3533                           
  3534                           ;i2c_interrupt.c: 72: void update_i2c_related_variables(i2c_package_t package);i2c_inter
      +                          rupt.c: 73: {;i2c_interrupt.c: 74:     LATCbits.LATC7 ^= 1;
  3535  026F  0022               	movlb	2	; select bank2
  3536  0270  0D0E               	rlf	14,w	;volatile
  3537  0271  0D0E               	rlf	14,w	;volatile
  3538  0272  3901               	andlw	1
  3539  0273  00F0               	movwf	??_update_i2c_related_variables
  3540  0274  3001               	movlw	1
  3541  0275  06F0               	xorwf	??_update_i2c_related_variables,f
  3542  0276  0CF0               	rrf	??_update_i2c_related_variables,f
  3543  0277  0CF0               	rrf	??_update_i2c_related_variables,f
  3544  0278  080E               	movf	14,w	;volatile
  3545  0279  0670               	xorwf	??_update_i2c_related_variables,w
  3546  027A  397F               	andlw	-129
  3547  027B  0670               	xorwf	??_update_i2c_related_variables,w
  3548  027C  008E               	movwf	14	;volatile
  3549  027D                     i1l1265:	
  3550                           
  3551                           ;i2c_interrupt.c: 76:     MASKED_I2C_PACKAGE = I2C_PACKAGE;
  3552  027D  30CD               	movlw	low _I2C_PACKAGE
  3553  027E  0086               	movwf	6
  3554  027F  3000               	movlw	high _I2C_PACKAGE
  3555  0280  0087               	movwf	7
  3556  0281  3020               	movlw	low _MASKED_I2C_PACKAGE
  3557  0282  0084               	movwf	4
  3558  0283  3001               	movlw	high _MASKED_I2C_PACKAGE
  3559  0284  0085               	movwf	5
  3560  0285  3022               	movlw	34
  3561  0286  00F0               	movwf	??_update_i2c_related_variables
  3562  0287                     u71_20:	
  3563  0287  0016               	moviw fsr1++
  3564  0288  001A               	movwi fsr0++
  3565  0289  0BF0               	decfsz	??_update_i2c_related_variables,f
  3566  028A  2A87               	goto	u71_20
  3567  028B                     i1l1267:	
  3568                           
  3569                           ;i2c_interrupt.c: 77:     I2C_PACKAGE = package;
  3570  028B  3042               	movlw	low update_i2c_related_variables@package
  3571  028C  0086               	movwf	6
  3572  028D  3000               	movlw	high update_i2c_related_variables@package
  3573  028E  0087               	movwf	7
  3574  028F  30CD               	movlw	low _I2C_PACKAGE
  3575  0290  0084               	movwf	4
  3576  0291  3000               	movlw	high _I2C_PACKAGE
  3577  0292  0085               	movwf	5
  3578  0293  3022               	movlw	34
  3579  0294  00F0               	movwf	??_update_i2c_related_variables
  3580  0295                     u72_20:	
  3581  0295  0016               	moviw fsr1++
  3582  0296  001A               	movwi fsr0++
  3583  0297  0BF0               	decfsz	??_update_i2c_related_variables,f
  3584  0298  2A95               	goto	u72_20
  3585  0299                     i1l1269:	
  3586                           
  3587                           ;i2c_interrupt.c: 79:     INT_FLAGS.update_lcd_display = 1;
  3588  0299  0021               	movlb	1	; select bank1
  3589  029A  146F               	bsf	_INT_FLAGS^(0+128),0	;volatile
  3590  029B                     i1l291:	
  3591  029B  0008               	return
  3592  029C                     __end_of_update_i2c_related_variables:	
  3593  007E                     btemp	set	126	;btemp
  3594  007E                     int$flags	set	126
  3595  007E                     wtemp0	set	126


Data Sizes:
    Strings     55
    Constant    34
    Data        0
    BSS         104
    Persistent  32
    Stack       0

Auto Spaces:
    Space          Size  Autos    Used
    COMMON           14     10      11
    BANK0            80     34      68
    BANK1            80     45      80
    BANK2            80      4      38
    BANK3            80      0       0
    BANK4            80      0       0
    BANK5            80      0       0
    BANK6            80      0       0
    BANK7            80      0       0
    BANK8            80      0       0
    BANK9            80      0       0
    BANK10           80      0       0
    BANK11           80      0       0
    BANK12           48      0       0

Pointer List with Targets:

    lcd_display_write_string@a	PTR unsigned char  size(2) Largest target is 26
		 -> STR_4(CODE[26]), STR_3(CODE[26]), STR_2(CODE[17]), STR_1(CODE[12]), 


Critical Paths under _main in COMMON

    _main->_lcd_display_write_string
    _display_i2c_data->_lcd_display_write_string
    _lcd_display_write_string->_lcd_display_write_char
    _lcd_display_write_char->_lcd_display_port
    _lcd_display_set_cursor->___awdiv
    _lcd_display_init->_lcd_display_cmd
    _lcd_display_clear->_lcd_display_cmd
    _lcd_display_cmd->_lcd_display_port

Critical Paths under _interruptHandler in COMMON

    _interruptHandler->_on_interrupt_i2c
    _on_interrupt_i2c->_update_i2c_related_variables

Critical Paths under _main in BANK0

    None.

Critical Paths under _interruptHandler in BANK0

    _on_interrupt_i2c->_update_i2c_related_variables

Critical Paths under _main in BANK1

    _update_display->_display_i2c_data
    _display_i2c_data->_lcd_display_set_cursor
    _lcd_display_set_cursor->___awdiv

Critical Paths under _interruptHandler in BANK1

    None.

Critical Paths under _main in BANK2

    _update_if_flag_set->_update_display
    _update_display->_display_i2c_data

Critical Paths under _interruptHandler in BANK2

    None.

Critical Paths under _main in BANK3

    None.

Critical Paths under _interruptHandler in BANK3

    None.

Critical Paths under _main in BANK4

    None.

Critical Paths under _interruptHandler in BANK4

    None.

Critical Paths under _main in BANK5

    None.

Critical Paths under _interruptHandler in BANK5

    None.

Critical Paths under _main in BANK6

    None.

Critical Paths under _interruptHandler in BANK6

    None.

Critical Paths under _main in BANK7

    None.

Critical Paths under _interruptHandler in BANK7

    None.

Critical Paths under _main in BANK8

    None.

Critical Paths under _interruptHandler in BANK8

    None.

Critical Paths under _main in BANK9

    None.

Critical Paths under _interruptHandler in BANK9

    None.

Critical Paths under _main in BANK10

    None.

Critical Paths under _interruptHandler in BANK10

    None.

Critical Paths under _main in BANK11

    None.

Critical Paths under _interruptHandler in BANK11

    None.

Critical Paths under _main in BANK12

    None.

Critical Paths under _interruptHandler in BANK12

    None.

Call Graph Tables:

 ---------------------------------------------------------------------------------
 (Depth) Function   	        Calls       Base Space   Used Autos Params    Refs
 ---------------------------------------------------------------------------------
 (0) _main                                                 0     0      0    6159
                               _init
                  _lcd_display_clear
                   _lcd_display_init
             _lcd_display_set_cursor
           _lcd_display_write_string
                 _update_if_flag_set
 ---------------------------------------------------------------------------------
 (1) _update_if_flag_set                                   0     0      0    3446
                     _update_display
 ---------------------------------------------------------------------------------
 (2) _update_display                                       1     1      0    3446
                                              3 BANK2      1     1      0
                   _display_i2c_data
 ---------------------------------------------------------------------------------
 (3) _display_i2c_data                                    38     4     34    3446
                                             10 BANK1     35     1     34
                                              0 BANK2      3     3      0
                            ___awdiv
             _lcd_display_set_cursor
             _lcd_display_write_char
           _lcd_display_write_string
 ---------------------------------------------------------------------------------
 (4) _lcd_display_write_string                             5     3      2     834
                                              8 COMMON     2     0      2
                                              0 BANK1      3     3      0
             _lcd_display_write_char
 ---------------------------------------------------------------------------------
 (5) _lcd_display_write_char                               4     4      0     254
                                              4 COMMON     4     4      0
                   _lcd_display_port
 ---------------------------------------------------------------------------------
 (4) _lcd_display_set_cursor                               7     6      1    1445
                                              8 COMMON     1     0      1
                                              4 BANK1      6     6      0
                            ___awdiv (ARG)
                    _lcd_display_cmd
 ---------------------------------------------------------------------------------
 (4) ___awdiv                                              9     5      4     625
                                              3 COMMON     5     1      4
                                              0 BANK1      4     4      0
 ---------------------------------------------------------------------------------
 (1) _lcd_display_init                                     1     1      0     279
                                              6 COMMON     1     1      0
                    _lcd_display_cmd
                   _lcd_display_port
 ---------------------------------------------------------------------------------
 (1) _lcd_display_clear                                    0     0      0     155
                    _lcd_display_cmd
 ---------------------------------------------------------------------------------
 (5) _lcd_display_cmd                                      2     2      0     155
                                              4 COMMON     2     2      0
                   _lcd_display_port
 ---------------------------------------------------------------------------------
 (6) _lcd_display_port                                     1     1      0     124
                                              3 COMMON     1     1      0
 ---------------------------------------------------------------------------------
 (1) _init                                                 0     0      0       0
                           _init_i2c
                     _init_interrupt
                    _init_oscillator
                         _init_ports
 ---------------------------------------------------------------------------------
 (2) _init_ports                                           0     0      0       0
                          _res_ports
                          _set_ports
 ---------------------------------------------------------------------------------
 (3) _set_ports                                            0     0      0       0
 ---------------------------------------------------------------------------------
 (3) _res_ports                                            0     0      0       0
 ---------------------------------------------------------------------------------
 (2) _init_oscillator                                      0     0      0       0
 ---------------------------------------------------------------------------------
 (2) _init_interrupt                                       0     0      0       0
               _init_interrupt_timer
 ---------------------------------------------------------------------------------
 (3) _init_interrupt_timer                                 0     0      0       0
 ---------------------------------------------------------------------------------
 (2) _init_i2c                                             0     0      0       0
 ---------------------------------------------------------------------------------
 Estimated maximum stack depth 6
 ---------------------------------------------------------------------------------
 (Depth) Function   	        Calls       Base Space   Used Autos Params    Refs
 ---------------------------------------------------------------------------------
 (7) _interruptHandler                                     0     0      0      99
                   _on_interrupt_i2c
               _on_interrupt_timer_0
 ---------------------------------------------------------------------------------
 (8) _on_interrupt_timer_0                                 0     0      0       0
 ---------------------------------------------------------------------------------
 (8) _on_interrupt_i2c                                     2     2      0      99
                                              1 COMMON     2     2      0
       _update_i2c_related_variables
 ---------------------------------------------------------------------------------
 (9) _update_i2c_related_variables                        35     1     34      98
                                              0 COMMON     1     1      0
                                              0 BANK0     34     0     34
 ---------------------------------------------------------------------------------
 Estimated maximum stack depth 9
 ---------------------------------------------------------------------------------

 Call Graph Graphs:

 _main (ROOT)
   _init
     _init_i2c
     _init_interrupt
       _init_interrupt_timer
     _init_oscillator
     _init_ports
       _res_ports
       _set_ports
   _lcd_display_clear
     _lcd_display_cmd
       _lcd_display_port
   _lcd_display_init
     _lcd_display_cmd
       _lcd_display_port
     _lcd_display_port
   _lcd_display_set_cursor
     ___awdiv (ARG)
     _lcd_display_cmd (ARG)
       _lcd_display_port
   _lcd_display_write_string
     _lcd_display_write_char
       _lcd_display_port
   _update_if_flag_set
     _update_display
       _display_i2c_data
         ___awdiv
         _lcd_display_set_cursor
           ___awdiv (ARG)
           _lcd_display_cmd (ARG)
             _lcd_display_port
         _lcd_display_write_char
           _lcd_display_port
         _lcd_display_write_string
           _lcd_display_write_char
             _lcd_display_port

 _interruptHandler (ROOT)
   _on_interrupt_i2c
     _update_i2c_related_variables
   _on_interrupt_timer_0

 Address spaces:
Name               Size   Autos  Total    Cost      Usage
BIGRAM             3F0      0       0       0        0.0%
NULL                 0      0       0       0        0.0%
CODE                 0      0       0       0        0.0%
BITCOMMON            E      0       0       1        0.0%
BITSFR0              0      0       0       1        0.0%
SFR0                 0      0       0       1        0.0%
COMMON               E      A       B       2       78.6%
BITSFR1              0      0       0       2        0.0%
SFR1                 0      0       0       2        0.0%
BITSFR2              0      0       0       3        0.0%
SFR2                 0      0       0       3        0.0%
STACK                0      0       0       3        0.0%
BITBANK0            50      0       0       4        0.0%
BITSFR3              0      0       0       4        0.0%
SFR3                 0      0       0       4        0.0%
BANK0               50     22      44       5       85.0%
BITSFR4              0      0       0       5        0.0%
SFR4                 0      0       0       5        0.0%
BITBANK1            50      0       0       6        0.0%
BITSFR5              0      0       0       6        0.0%
SFR5                 0      0       0       6        0.0%
BANK1               50     2D      50       7      100.0%
BITSFR6              0      0       0       7        0.0%
SFR6                 0      0       0       7        0.0%
BITBANK2            50      0       0       8        0.0%
BITSFR7              0      0       0       8        0.0%
SFR7                 0      0       0       8        0.0%
BANK2               50      4      26       9       47.5%
BITSFR8              0      0       0       9        0.0%
SFR8                 0      0       0       9        0.0%
BITBANK3            50      0       0      10        0.0%
BITSFR9              0      0       0      10        0.0%
SFR9                 0      0       0      10        0.0%
BANK3               50      0       0      11        0.0%
BITSFR10             0      0       0      11        0.0%
SFR10                0      0       0      11        0.0%
BITBANK4            50      0       0      12        0.0%
BITSFR11             0      0       0      12        0.0%
SFR11                0      0       0      12        0.0%
BANK4               50      0       0      13        0.0%
BITSFR12             0      0       0      13        0.0%
SFR12                0      0       0      13        0.0%
BITBANK5            50      0       0      14        0.0%
BITSFR13             0      0       0      14        0.0%
SFR13                0      0       0      14        0.0%
BANK5               50      0       0      15        0.0%
BITSFR14             0      0       0      15        0.0%
SFR14                0      0       0      15        0.0%
BITBANK6            50      0       0      16        0.0%
BITSFR15             0      0       0      16        0.0%
SFR15                0      0       0      16        0.0%
BANK6               50      0       0      17        0.0%
BITSFR16             0      0       0      17        0.0%
SFR16                0      0       0      17        0.0%
BITBANK7            50      0       0      18        0.0%
BITSFR17             0      0       0      18        0.0%
SFR17                0      0       0      18        0.0%
BANK7               50      0       0      19        0.0%
BITSFR18             0      0       0      19        0.0%
SFR18                0      0       0      19        0.0%
BITSFR19             0      0       0      20        0.0%
SFR19                0      0       0      20        0.0%
ABS                  0      0      C5      20        0.0%
BITBANK8            50      0       0      21        0.0%
BITSFR20             0      0       0      21        0.0%
SFR20                0      0       0      21        0.0%
BANK8               50      0       0      22        0.0%
BITSFR21             0      0       0      22        0.0%
SFR21                0      0       0      22        0.0%
BITBANK9            50      0       0      23        0.0%
BITSFR22             0      0       0      23        0.0%
SFR22                0      0       0      23        0.0%
BANK9               50      0       0      24        0.0%
BITSFR23             0      0       0      24        0.0%
SFR23                0      0       0      24        0.0%
BITBANK10           50      0       0      25        0.0%
BITSFR24             0      0       0      25        0.0%
SFR24                0      0       0      25        0.0%
BANK10              50      0       0      26        0.0%
BITSFR25             0      0       0      26        0.0%
SFR25                0      0       0      26        0.0%
BITBANK11           50      0       0      27        0.0%
BITSFR26             0      0       0      27        0.0%
SFR26                0      0       0      27        0.0%
BANK11              50      0       0      28        0.0%
BITSFR27             0      0       0      28        0.0%
SFR27                0      0       0      28        0.0%
BITBANK12           30      0       0      29        0.0%
BITSFR28             0      0       0      29        0.0%
SFR28                0      0       0      29        0.0%
BANK12              30      0       0      30        0.0%
BITSFR29             0      0       0      30        0.0%
SFR29                0      0       0      30        0.0%
BITSFR30             0      0       0      31        0.0%
SFR30                0      0       0      31        0.0%
DATA                 0      0      C5      31        0.0%
BITSFR31             0      0       0      32        0.0%
SFR31                0      0       0      32        0.0%


Microchip Technology PIC Macro Assembler V2.10 build 88905656 
Symbol Table                                                                                   Fri Apr 10 14:08:34 2020

                          __CFG_CP$OFF 0000                            _SSPSTATbits 0214  
                     ??_init_interrupt 0073                                     _BF 10A0  
                                   l42 035D                                     l51 0122  
                                   l54 0146                                     l39 03AD  
                         ___awdiv@sign 00A1                         _update_display 034B  
             __end_of_display_i2c_data 0147                                    l200 0336  
                                  l121 038B                                    l130 037E  
                                  l203 03B6                                    l124 03C4  
                                  l212 0232                                    l133 03D0  
                                  l221 0306                                    l142 03A3  
                                  l127 03BD                                    l215 02C7  
                                  l136 034A                                    l209 01EF  
                                  l139 03CF                                    l191 02D8  
                                  l193 02DF                                    l195 02E6  
                                  l524 01A6                                    l197 02E7  
                                  l189 02D0                                    l971 039F  
                                  l963 036F                                    l973 03A0  
                                  l965 0398                                    l981 03C0  
                                  l991 0340                                    l975 03A1  
                                  l967 039A                                    l983 03B7  
                                  l993 0342                                    l985 0337  
                                  l969 039E                                    _CKP 10AC  
                                  l995 0344                                    l987 033A  
                                  l979 03BE                                    l997 0345  
                                  l989 033F                                    l999 0346  
                                  u970 02CD                                    u971 02CC  
                                  u980 02D6                                    u981 02D5  
                                  u990 02DD                                    u991 02DC  
                         __CFG_BORV$LO 0000                                    wreg 0009  
                         __CFG_IESO$ON 0000                           __CFG_LVP$OFF 0000  
                                 l1001 0348                                   l1003 03CB  
                                 l1005 03CE                                   l1021 0388  
                                 l1015 037F                                   l1017 0382  
                                 l1019 0385                                   l1401 02B9  
                                 l1411 0324                                   l1403 02BB  
                                 l1413 0326                                   l1421 01A9  
                                 l1405 02BF                                   l1501 00F6  
                                 l1415 032A                                   l1511 01F0  
                                 l1423 01AE                                   l1431 01CC  
                                 l1407 02C1                                   l1503 0112  
                                 l1417 032C                                   l1521 03AE  
                                 l1513 01F4                                   l1433 01D2  
                                 l1425 01BD                                   l1409 02C5  
                                 l1441 02E8                                   l1505 011C  
                                 l1419 0334                                   l1515 01FB  
                                 l1451 0149                                   l1435 01E1  
                                 l1427 01C2                                   l1443 02EC  
                                 l1507 012C                                   l1523 03A4  
                                 l1531 0316                                   l1381 02D6  
                                 l1517 0206                                   l1461 015D  
                                 l1453 014D                                   l1437 01E6  
                                 l1429 01C6                                   l1445 02F6  
                                 l1509 034B                                   l1525 03A9  
                                 l1533 031D                                   l1383 02D9  
                                 l1375 02C9                                   l1519 020A  
                                 l1471 0171                                   l1463 0161  
                                 l1455 0152                                   l1439 01EA  
                                 l1391 029D                                   l1447 02FB  
                                 l1527 03AA                                   l1385 02DD  
                                 l1377 02CD                                   l1481 018D  
                                 l1473 0175                                   l1465 0163  
                                 l1457 0154                                   l1449 0147  
                                 l1393 02A7                                   l1529 0307  
                                 l1387 02E0                                   l1379 02D2  
                                 l1483 0192                                   l1475 0179  
                                 l1467 0169                                   l1459 0158  
                                 l1395 02A9                                   l1389 02E4  
                                 l1477 0188                                   l1469 016C  
                                 l1485 0198                                   l1397 02B3  
                                 l1493 00D9                                   l1487 019D  
                                 l1479 018C                                   l1399 02B5  
                                 l1495 00DF                                   l1489 01A2  
                                 l1497 00E6                                   l1499 00F3  
                                 STR_1 038C                                   STR_2 035E  
                                 STR_3 0255                                   STR_4 0255  
                                 _T0IE 005D                                   u1000 02E4  
                                 _T0IF 005A                                   u1001 02E3  
                                 u1020 01AE                                   u1021 01AD  
                                 u1110 0179                                   u1111 0178  
                                 u1015 02AC                                   u1040 01D2  
                                 u1105 016D                                   u1041 01D1  
                                 u1130 0188                                   u1131 0187  
                                 u1035 01B6                                   u1060 0306  
                                 u1125 017A                                   u1061 0305  
                                 u1150 0198                                   u1070 014D  
                                 u1151 0197                                   u1135 0184  
                                 u1071 014C                                   u1055 01DA  
                                 u1207 02B6                                   u1160 019D  
                                 u1080 0158                                   u1161 019C  
                                 u1145 018E                                   u1081 0157  
                                 u1217 02C2                                   u1090 0169  
                                 u1170 012C                                   u1227 01F7  
                                 u1091 0168                                   u1171 012B  
                                 u1180 0356                                   u1237 0202  
                                 _LATA 010C                                   u1190 03A9  
                                 _LATB 010D                                   u1247 020D  
                                 u1191 03A8                                   _LATC 010E  
                                 _LATD 010F                                   u1257 032F  
                                 _TMR0 0015                                   _D_nA 10A5  
             ??_lcd_display_write_char 0074                                   _R_nW 10A2  
                         __CFG_WRT$OFF 0000                          __CFG_FCMEN$ON 0000  
                                 _main 0307               __end_of_interruptHandler 0021  
                                 _init 037F              __end_of_I2C_PACKAGE_EMPTY 0255  
                                 fsr0h 0005                                   fsr1h 0007  
                                 indf0 0000                                   fsr0l 0004  
                                 indf1 0001                                   fsr1l 0006  
                                 btemp 007E                      ??_init_oscillator 0073  
                        __CFG_BOREN$ON 0000          __size_of_init_interrupt_timer 000C  
                                 start 0021                          __CFG_MCLRE$ON 0000  
            __size_of_lcd_display_init 0043              __size_of_lcd_display_port 0020  
               __end_of_update_display 035E                                  ?_main 0070  
                                ?_init 0070                        __end_of___awdiv 01A7  
                        __CFG_WDTE$OFF 0000                        ___awdiv@divisor 0073  
                                _LATA0 0860                                  _LATA1 0861  
                                _LATA2 0862                                  _LATB0 0868  
                                _LATA3 0863                                  _LATB1 0869  
                                i1l172 03D1                                  i1l270 007D  
                                i1l280 00A4                                  i1l272 0082  
                                i1l273 00AA                                  i1l265 0068  
                                i1l169 001F                                  i1l282 009F  
                                i1l274 0090                                  i1l266 0062  
                                i1l291 029B                                  i1l268 0067  
                                i1l285 00A9                                  i1l277 0097  
                                i1l269 0083                                  i1l288 00D8  
                      ___awdiv@counter 00A0                                  u71_20 0287  
                                u72_20 0295                                  u80_20 0070  
                                u80_21 006F                                  u81_20 0082  
                                u81_21 0081                                  _TRISA 008C  
                                _TRISB 008D                                  _TRISC 008E  
                                _TRISD 008F                                  _SSPIE 048B  
                                u90_20 00B7                                  u82_20 0087  
                                u74_20 0048                                  _SSPIF 008B  
                                u90_21 00B6                                  u82_21 0086  
                                u74_21 0047                                  u91_20 00C1  
                                u83_20 008B                                  u75_20 004C  
                                u83_21 008A                                  u75_21 004B  
                                u92_20 00D2                                  u84_20 0095  
                                u76_20 0059                                  u84_21 0094  
                                u76_21 0058                                  u85_20 009C  
                                u77_20 005D                                  u93_20 000B  
                                u85_21 009B                                  u77_21 005C  
                                u93_21 000A                                  u86_20 00A4  
                                u78_20 0067                                  u94_20 0010  
                                u86_21 00A3                                  u78_21 0066  
                                u94_21 000F                                  u87_20 00A9  
                                u79_20 006C                                  u95_20 0017  
                                u87_21 00A8                                  u79_21 006B  
                                u95_21 0016                                  u88_20 00AE  
                                u96_20 001B                                  u88_21 00AD  
                                u96_21 001A                                  u89_20 00B2  
                                u89_21 00B1        __size_of_lcd_display_set_cursor 0049  
            __size_of_on_interrupt_i2c 0099                                  status 0003  
                                wtemp0 007E                   _on_interrupt_timer_0 03D1  
                      __initialization 0023                           __end_of_main 0323  
                         __end_of_init 038C               _lcd_display_write_string 02E8  
                      ?_update_display 0070                         __CFG_LPBOR$OFF 0000  
                               ??_main 007A                                 ??_init 0073  
                     ___awdiv@dividend 0075                                 _ANSELA 018C  
                               _ANSELB 018D                                 _ANSELC 018E  
                               _ANSELD 018F                                 i1l1301 0055  
                               i1l1311 0079                                 i1l1303 0059  
                               i1l1321 00AE                                 i1l1313 0087  
                               i1l1305 005D                                 i1l1331 00C8  
                               i1l1323 00B2                                 i1l1315 008B  
                               i1l1307 006C                                 i1l1333 00D6  
                               i1l1325 00B2                                 i1l1317 0095  
                               i1l1309 0070                                 i1l1263 026F  
                               i1l1327 00B3                                 i1l1319 009D  
                               i1l1265 027D                                 i1l1329 00B7  
                               i1l1361 0010                                 i1l1267 028B  
                               i1l1291 0048                                 i1l1363 0013  
                               i1l1269 0299                                 i1l1293 004C  
                               i1l1365 0017                                 i1l1357 0006  
                               i1l1295 0051                                 i1l1367 001B  
                               i1l1359 000B                                 i1l1297 0053  
                               i1l1289 0040                                 i1l1369 001E  
                               i1l1299 0054        __size_of_lcd_display_write_char 002C  
                               _SSPADD 0212                                 _SSPBUF 0211  
                ?_on_interrupt_timer_0 0070                         __CFG_PWRTE$OFF 0000  
               _lcd_display_set_cursor 01A7                     _update_if_flag_set 03A4  
                            ??___awdiv 0077                         __CFG_STVREN$ON 0000  
                     __end_of_init_i2c 034B                       ___awdiv@quotient 00A2  
                  ?_update_if_flag_set 0070               __size_of_lcd_display_cmd 0014  
              __end_of__initialization 003C                        _current_package 0020  
                 ??_update_if_flag_set 007A                       _lcd_display_init 01F0  
                       __pcstackCOMMON 0070                       _lcd_display_port 02C8  
           lcd_display_write_char@temp 0075                 _lcd_display_write_char 029C  
                    ?_display_i2c_data 00AA                         _OPTION_REGbits 0095  
                   ??_display_i2c_data 0142                        _init_oscillator 03BE  
                           __pbssBANK0 0020                             __pbssBANK1 00CD  
                           __pbssBANK2 0120                       _on_interrupt_i2c 0040  
                      __CFG_VCAPEN$OFF 0000                 ??_on_interrupt_timer_0 0070  
                    ?_interruptHandler 0070                     ??_interruptHandler 0073  
                           __pmaintext 0307                             __pintentry 0004  
                              _ACKSTAT 10B6                     __size_of_res_ports 0010  
         __end_of_init_interrupt_timer 03A4                     __size_of_set_ports 0001  
              lcd_display_set_cursor@a 00A6                lcd_display_set_cursor@b 0078  
              lcd_display_set_cursor@y 00A8                lcd_display_set_cursor@z 00A7  
                              _SSPCON1 0215                                _SSPCON2 0216  
                              _SSPCON3 0217                                _SSPSTAT 0214  
                            ?_init_i2c 0070             ??_lcd_display_write_string 00A0  
                    ??_lcd_display_cmd 0074                       ??_update_display 0145  
                    lcd_display_port@a 0073              lcd_display_write_string@a 0078  
            lcd_display_write_string@i 00A1            display_i2c_data@i2c_package 00AA  
                              ___awdiv 0147                __end_of_init_oscillator 03C5  
                           _init_ports 03B7                                __ptext1 03A4  
                              __ptext2 034B                                __ptext3 00D9  
                              __ptext4 02E8                                __ptext5 029C  
                              __ptext6 01A7                                __ptext7 0147  
                              __ptext8 01F0                                __ptext9 03AE  
                              _display 007A                __size_of_init_interrupt 0005  
                              clrloop0 03C6                   end_of_initialization 003C  
                           ??_init_i2c 0073                      __end_of_res_ports 037F  
                            _INT_FLAGS 00EF                ?_lcd_display_set_cursor 0078  
                    __end_of_set_ports 03D1                      display_i2c_data@i 00CC  
                     __CFG_FOSC$INTOSC 0000                              _TRISCbits 008E  
             __end_of_lcd_display_init 0233               __end_of_lcd_display_port 02E8  
                          _I2C_PACKAGE 00CD         __end_of_lcd_display_set_cursor 01F0  
  update_i2c_related_variables@package 0042                   _init_interrupt_timer 0398  
                    _lcd_display_clear 03AE                ?_lcd_display_write_char 0070  
                   ?_lcd_display_clear 0070                            ?_init_ports 0070  
                     ?_init_oscillator 0070               __end_of_on_interrupt_i2c 00D9  
                  ??_lcd_display_clear 0076                    start_initialization 0023  
     __end_of_lcd_display_write_string 0307              __size_of_display_i2c_data 006E  
          __size_of_update_if_flag_set 000A                  ?_init_interrupt_timer 0070  
            __end_of_lcd_display_clear 03B7         __end_of_lcd_display_write_char 02C8  
            __size_of_interruptHandler 001D                            __pbssCOMMON 007A  
                            ___latbits 0003                          __pcstackBANK0 0042  
                        __pcstackBANK1 00A0                          __pcstackBANK2 0142  
                       _init_interrupt 03CB                        _lcd_display_cmd 0323  
                  __size_of_init_ports 0007                      __size_of_init_i2c 0014  
        __size_of_on_interrupt_timer_0 0001                     _MASKED_I2C_PACKAGE 0120  
                             ?___awdiv 0073                lcd_display_write_char@a 0077  
              lcd_display_write_char@y 0076                 __end_of_init_interrupt 03D0  
                     lcd_display_cmd@a 0075   __end_of_update_i2c_related_variables 029C  
__size_of_update_i2c_related_variables 002D           _update_i2c_related_variables 026F  
           lcd_display_set_cursor@temp 00A9                 ??_init_interrupt_timer 0073  
                             _LATCbits 010E                              clear_ram0 03C5  
           __size_of_lcd_display_clear 0009                              _res_ports 036F  
                            _set_ports 03D0      __size_of_lcd_display_write_string 001F  
              __end_of_lcd_display_cmd 0337              ?_lcd_display_write_string 0078  
                      ?_init_interrupt 0070                      ?_lcd_display_init 0070  
                    ?_lcd_display_port 0070                     ??_lcd_display_init 0076  
        ?_update_i2c_related_variables 0042                     ??_lcd_display_port 0073  
                     _display_i2c_data 00D9                             ?_res_ports 0070  
                           ?_set_ports 0070                       __size_of___awdiv 0060  
                         ??_init_ports 0073                __size_of_update_display 0013  
                     _interruptHandler 0004                      ?_on_interrupt_i2c 0070  
                   ??_on_interrupt_i2c 0071                               __ptext10 0323  
                             __ptext11 02C8                               __ptext12 037F  
                             __ptext21 03D1                               __ptext13 03B7  
                             __ptext22 0040                               __ptext14 03D0  
                             __ptext23 026F                               __ptext15 036F  
                             __ptext16 03BE                               __ptext17 03CB  
                             __ptext18 0398                               __ptext19 0337  
                             _init_i2c 0337                          __size_of_main 001C  
                        __size_of_init 000D                     __end_of_init_ports 03BE  
                             int$flags 007E                       ?_lcd_display_cmd 0070  
                           _INTCONbits 000B               __size_of_init_oscillator 0007  
                             intlevel1 0000             __end_of_update_if_flag_set 03AE  
                    __CFG_CLKOUTEN$OFF 0000         ??_update_i2c_related_variables 0070  
                           _OSCCONbits 0099                            ??_res_ports 0073  
                          ??_set_ports 0073                          __pstringtext1 0233  
                        __pstringtext2 035E                          __pstringtext3 038C  
                        __pstringtext4 0000           __end_of_on_interrupt_timer_0 03D2  
             ??_lcd_display_set_cursor 00A4                             _SSPCONbits 0215  
                    _I2C_PACKAGE_EMPTY 0233  
